(lp0
L8795786837540577305L
aL13215032877672206884L
aL12445311711646369742L
aL10061023142737241538L
aL17222687591506049399L
aL1228304589463902690L
aL18039865345539989060L
aL5164940982149710100L
aL16011038760340588763L
aL16075791129735380540L
aL15792114832332432536L
aL5692015489464683866L
aL1515132692446095936L
aL1266445187622505604L
aL14942436405380371978L
aL10644039478120118613L
aL8745427471603518642L
aL15049169357521537868L
aL6419509184068229419L
aL576427497315650423L
aL12490983521892760925L
aL5079277516359137300L
aL16983130027395549194L
aL5235877021164479832L
aL9273754283600311123L
aL14055554230947713710L
aL8412249550866515241L
aL16432686243214993834L
aL5098724330031492382L
aL15411817750425556472L
aL10434732588038520743L
aL5692277130099501012L
aL14178754938912223758L
aL729344473234387231L
aL1517068042121366345L
aL14952471212290673139L
aL7620705457959579021L
aL16637894436971736235L
aL11502382862128870864L
aL11213289595971531309L
aL4274379775089627870L
aL717034903531626567L
aL7838778323708583046L
aL4259367663012991539L
aL5591543800657011040L
aL11974328022486022800L
aL8341100140313699910L
aL2396645892596323346L
aL4197497930090180381L
aL793397911747953128L
aL6769628361709320164L
aL9118286019337283787L
aL161695989871983208L
aL5512306280874277220L
aL13858212248735495044L
aL10349534539210074549L
aL1404509579798547248L
aL16116357188858863160L
aL10600802564083356616L
aL13379474198919367748L
aL14222405428123743971L
aL15985100893647489455L
aL18024253840007205777L
aL9493966775977817134L
aL5185407752749941620L
aL6537313775048999876L
aL4640402069901231719L
aL10962193860288713422L
aL6972681431914903753L
aL238139453801418773L
aL5668668702186193195L
aL9305648975119448541L
aL3514141771948439679L
aL15591197339888852325L
aL14355096726323133417L
aL15086015751380163876L
aL12403791299213156662L
aL8823073655104181284L
aL3553077164290483894L
aL17283503552050386646L
aL13847505195940533822L
aL8608629333130775128L
aL15277413592421424365L
aL8735156624161941223L
aL50742458348140924L
aL16941788854692667681L
aL16485584197377435107L
aL11169963751413416544L
aL13539084958188136828L
aL2814808025615138173L
aL947419925741092449L
aL1501496744157827360L
aL1398583475287861085L
aL11917658626229238405L
aL14550866810179683886L
aL18217539010634122408L
aL13429291109530208878L
aL6508494985626469335L
aL1783782777172794667L
aL17515587219230770721L
aL8549611830283000143L
aL4505632196005083313L
aL17477698062309387354L
aL17781493060758196509L
aL4167880890801686056L
aL5040210395693796446L
aL3158824815113105798L
aL14433551764557839120L
aL5442860768656486636L
aL13798573677951332653L
aL15769305988349234199L
aL6714580684311550641L
aL7357200151752073496L
aL9301899251337163428L
aL16498363070611991745L
aL9500754420942380441L
aL4485003363814014869L
aL10963769746065527884L
aL15331345085936227198L
aL7017376661657648653L
aL11148546766393613742L
aL8246530514077346897L
aL13803834010398578241L
aL10522428910317185825L
aL10592231594891512778L
aL7154008599146018050L
aL10727185183262915684L
aL3170220602053691619L
aL667055106080285804L
aL18254271420673667949L
aL10699458512802762522L
aL5562530909658477690L
aL17023452594224214794L
aL15872224390630414336L
aL14048414808739599816L
aL3175000380780547525L
aL13973510388926357132L
aL2585605261991341724L
aL10345558117331096203L
aL8420275324945028432L
aL4938949583560760426L
aL5165332900105920754L
aL13372426173944395039L
aL213252608203068236L
aL9526762730633446061L
aL15295753311562797884L
aL6117428259726415925L
aL15203561265243718416L
aL16844759659978068399L
aL15149672624295848192L
aL15070108826472045217L
aL3041780103802241040L
aL13500508618734368753L
aL16609809466577220535L
aL4399939651308196404L
aL16428081319693147934L
aL10854095197716214009L
aL14999420551938598804L
aL16251642523347295001L
aL12291594099076654356L
aL6352160648278024175L
aL1538976381594765985L
aL11473275708062601017L
aL6602579581567088126L
aL12081304633681316682L
aL2760007915030330252L
aL14713614945800423643L
aL2722782338317018763L
aL3462736346998531363L
aL4246089312935214966L
aL7285133350685801428L
aL11721746355541881089L
aL5391904215501221309L
aL5484198204086774243L
aL9015572600438799025L
aL6321035108112284135L
aL5040661932979667743L
aL12816420485759753991L
aL8522942754435643250L
aL14658976118271573628L
aL4762839124445336596L
aL2805215889480617415L
aL17033492610528134230L
aL9465589093286517061L
aL5551979716953465727L
aL1032841500763321320L
aL18330148911530198603L
aL8997121884040399831L
aL7426685557284892627L
aL13878074548627278006L
aL217064731895030852L
aL11277675229456111855L
aL12733793902767313368L
aL11443891213648124766L
aL17509803494388650951L
aL11324617160473253251L
aL12305309937214101630L
aL10902519815264573970L
aL7800285115738238017L
aL10711903744408731343L
aL971203427731379204L
aL17046057797547874023L
aL6753967241571402763L
aL8176898587599393508L
aL12204067310167674905L
aL4420335993685337143L
aL5530944676599059191L
aL14167496610626977429L
aL2422885495981706879L
aL14514255221033170230L
aL5777992704509707778L
aL10470915766626951332L
aL4868941871896951683L
aL14397694033365565812L
aL11320116373141093734L
aL7667029869953036761L
aL2869882215170296369L
aL15326077433372071091L
aL11978291526438781164L
aL13894299144417390870L
aL14427106466731278319L
aL17782714645480890151L
aL6193943037146206746L
aL15060343728546079919L
aL5596111885256505635L
aL8047511548343626272L
aL10049337767138303081L
aL5164600285271415924L
aL13877149746194906326L
aL13734497506258705468L
aL15434658806258116871L
aL14333266621432767817L
aL5666118579967241245L
aL9267131905408639686L
aL9590140546404001449L
aL6714271762443858752L
aL10877447476440334565L
aL6339933934168580481L
aL17106149207867524872L
aL3965819714476818610L
aL18412301936805893645L
aL16450614373231652886L
aL10901911739202643358L
aL5127998152864135274L
aL14908989254057631656L
aL975571368624916888L
aL11790242127438247244L
aL14968014518387521426L
aL2933256373457944093L
aL13006507066726556439L
aL9359147034916759568L
aL13990016727135765232L
aL6773106734516212316L
aL8260135034158608897L
aL4162655365080361467L
aL11065812801356503121L
aL5391773784390121067L
aL4042715429771877699L
aL6399890396897805475L
aL15944812034631951351L
aL5071982851087882353L
aL5473154542039960469L
aL14451290736914707311L
aL2809637013420670129L
aL17640879701646386702L
aL9687197254034715068L
aL8369357877155516774L
aL8607491882028069975L
aL14498305488586750519L
aL6224543388850096050L
aL9032310429112386375L
aL9889056300174346022L
aL11951802227637615694L
aL7031374677127836102L
aL16253876552880235906L
aL10120956879478865898L
aL1082263902496872787L
aL3979381380101570933L
aL6055029462199550186L
aL13941428189541067761L
aL12089467005100248098L
aL7180834515516539912L
aL12766392314108051246L
aL9165505165170233204L
aL12203327666574921681L
aL2717234845105687780L
aL1156521839464782726L
aL6093733673694819074L
aL5715008213066865430L
aL15183633731234542398L
aL17267886429214864740L
aL5398005289148563020L
aL5333385459090679439L
aL15663886504465714213L
aL7864216006930884678L
aL17803448412001592822L
aL5426530858637243955L
aL14057154589991845704L
aL9515271906277686452L
aL9559210556322212917L
aL15317864078299432399L
aL9115622613563236312L
aL204838280385730611L
aL14158531004838293781L
aL570010883966558835L
aL9903852268114029485L
aL12908244359647653417L
aL17755116148669308615L
aL7192836238044402171L
aL6793793996519016011L
aL3848513380507017956L
aL2097123413881840422L
aL16666697995747682253L
aL2553215980452243324L
aL11637660000054368608L
aL12500959714262138830L
aL2333535101483864436L
aL12919186254187106534L
aL8843540894021098750L
aL2834959147290799885L
aL5922551620136169953L
aL10929449708853604447L
aL5656100647959059700L
aL10684722228745519680L
aL3483298453350213126L
aL6739882316562635415L
aL7790247385205292074L
aL4996040933821986329L
aL11708175130686718923L
aL10446693540426075463L
aL13577487687796818517L
aL5903737245235744982L
aL17258989489630904070L
aL2957072048988405960L
aL6361440263377003322L
aL14827769058257547484L
aL15017991733169188623L
aL198625016321538406L
aL11365337104667113795L
aL7791620425635036851L
aL15704816182841280364L
aL16331851412008945118L
aL2522599372013650393L
aL17417604582264901820L
aL17250669892054828472L
aL18303235714072896037L
aL9949492072999032989L
aL11807310270018179620L
aL13678096921644918847L
aL4417839231494494824L
aL13027234899778984264L
aL11911111505613052795L
aL16962479821670306900L
aL3068577715141640967L
aL8219132656870844644L
aL7908492200085089502L
aL4501516791797921102L
aL7448388821412399924L
aL11709354376198095925L
aL5596444099057224290L
aL13697307809841434188L
aL10558714311419294771L
aL7643673414144138757L
aL11287472273730514830L
aL6007594062610418046L
aL13322741257520732927L
aL4319757871618683381L
aL11690487343594480945L
aL9709674421525909614L
aL18395698485855949306L
aL12938815221353858213L
aL18047322720590564473L
aL8965824002345799492L
aL5195964276620477390L
aL4796266837267318953L
aL884527492751283529L
aL9288638314494175040L
aL11884427608803647379L
aL9952257165254132818L
aL5050643451883560672L
aL10043457345140634598L
aL475469764886921247L
aL3922580895860107504L
aL7615817362187809260L
aL14002355204034582403L
aL1169205925685740249L
aL12283249829153657927L
aL418657355468059347L
aL10430496119660859387L
aL14650994029286494132L
aL17753551307139973290L
aL10900049086820699827L
aL13614035352674106434L
aL7186872754851568493L
aL11967227733903953106L
aL1973555030059946331L
aL7264758369307225138L
aL910405256604674105L
aL10314960721933001479L
aL6751078621295175184L
aL17278843794461413302L
aL2900130090716691514L
aL17642859200962784433L
aL515397465493139452L
aL14465485607544619094L
aL6388832151221054787L
aL3756262472124890732L
aL16406201241094961799L
aL5306880953089367947L
aL2111083092728301003L
aL18110094153984062306L
aL18187441284310929412L
aL4428252389866622733L
aL7463582037194601860L
aL1272475586470896852L
aL10301281739824257871L
aL14282416104263691007L
aL1911030299270954979L
aL9900619800100794804L
aL4773720246613639150L
aL16262532754289553572L
aL10996695359720672658L
aL592427078402117123L
aL7160148030074810684L
aL14148373998551544444L
aL16829120285026997020L
aL4840923548840330890L
aL8981246792940862470L
aL4375149759245649261L
aL4968747231797369417L
aL6968740405636521810L
aL331711203667190631L
aL18091136177680572099L
aL14589825756451284714L
aL5489683373490891863L
aL4394952885423314153L
aL16847189297696076491L
aL1118465292978448018L
aL1571045424712886011L
aL5166805492586822753L
aL16997358131064911551L
aL13091392519835116774L
aL9402274921444402140L
aL6394663176209489243L
aL17163556521999099556L
aL18041196319819377606L
aL13465568668341324436L
aL18275136110160998980L
aL621483798704011675L
aL4500056672265827551L
aL5914780566401476168L
aL16296343343166292620L
aL1706790949549611293L
aL337020816513567317L
aL14955217728534795875L
aL9625203013588638086L
aL15867512239569610011L
aL16721990095937194589L
aL4758863247187594931L
aL9362197840557651024L
aL4406093356797977400L
aL7916066828990978621L
aL18316540768365229090L
aL3880827986103366640L
aL14575044422401102990L
aL4572698447112791867L
aL5924978757706849863L
aL9003442897583629924L
aL1348824203176376885L
aL15210148568872072874L
aL8994560117731173792L
aL4615243604351793681L
aL16077195599597713130L
aL10639498177122646901L
aL199837787654882169L
aL11004849754001821231L
aL4149220934753234376L
aL7792493229644246643L
aL2630393671379694588L
aL10053323658391479091L
aL17799309611583891509L
aL1359989150847522835L
aL8184712733741399545L
aL15237599728114660564L
aL804542077781947170L
aL16795635279359447327L
aL3240365681463386137L
aL6017167315756368837L
aL4961028649163449217L
aL8469733102911764189L
aL3391859488201802612L
aL11805071388469532135L
aL12915081130834316601L
aL9456600108910169748L
aL16922975511315885852L
aL3832623558986999623L
aL284230640572999696L
aL17046014617945953932L
aL8340541886837413187L
aL17991360182192753813L
aL14185015282685095137L
aL10617514038420562733L
aL15037143472488227478L
aL14887444840844069919L
aL7306984793085906501L
aL17349333666528227692L
aL3521912604045480883L
aL2895377084335113784L
aL7164121319659964557L
aL5060858020674567258L
aL4891090226429992879L
aL10224048374225977239L
aL7774351193508508534L
aL145838975733086356L
aL11738438768898719462L
aL3409588662732767471L
aL13248953065180079635L
aL11300801971926896460L
aL15263022479833297663L
aL16507956761203015353L
aL17001274962944181795L
aL8302923076789135299L
aL17639948958830925869L
aL17141721760114244999L
aL15053763715392399097L
aL13086362937081998532L
aL7397778129400833911L
aL8899537638889240043L
aL8549649429686706146L
aL6145329936514536098L
aL17967004898973141130L
aL16010956301662949458L
aL15974266351800494894L
aL8564945474114586798L
aL11732495007387870361L
aL16474633245108545506L
aL15612901900249932448L
aL174335027740000189L
aL11238448268179022077L
aL12087578717896546299L
aL1358317759637137870L
aL16937899837598932121L
aL1576911631572796913L
aL10633268193404093663L
aL10051723439354337164L
aL1005696038393996499L
aL5572462141816580155L
aL3652953192714293325L
aL4531214605833772991L
aL8021152207212663084L
aL17758358113625808400L
aL14612058978174895760L
aL8576322723192960553L
aL5412023072277353118L
aL144056333704639253L
aL6623008399108097321L
aL5359699595096211775L
aL3288109481858713963L
aL13470120188694136239L
aL10875078950471727567L
aL4625408965844025432L
aL9524688910374849049L
aL2171896727654926671L
aL5416361352197321278L
aL14359730516114181800L
aL1847506802050053995L
aL9403882981032605959L
aL11994946863410261965L
aL8569575441569750105L
aL17002736029707048253L
aL8992402658914554508L
aL17629748662707323762L
aL12672784793501312162L
aL12186606939580727953L
aL17354054383746256059L
aL6066426137274720468L
aL18102504659575888680L
aL2919903865097084768L
aL14150114229193069142L
aL13743791100777041875L
aL8052211082995469075L
aL7874891795626992442L
aL6402497833119661929L
aL1173142916301864401L
aL15370866821359748700L
aL14666306536877784114L
aL6205474784976175308L
aL13267973006501715126L
aL5847771460055490520L
aL881773254541707056L
aL17743488048546130939L
aL12140120078700051345L
aL16406674594191630024L
aL12907146895962135126L
aL6088833123748476043L
aL4900538366739967703L
aL3524554383962602000L
aL133556544781620363L
aL14660339997792348375L
aL10102960146838952113L
aL1487593199603966164L
aL18289540025717850165L
aL10654510773239955699L
aL11719073626558007425L
aL702926170189498469L
aL3140790016783902234L
aL10213603535703867998L
aL4051153614756882912L
aL17157535717160577685L
aL4876225136597952336L
aL3634081986701548783L
aL10084661429405959855L
aL5520552574658425667L
aL2028314512333041599L
aL11355832674772287187L
aL2757588004736267871L
aL9959526864458391402L
aL14224051298719394378L
aL17752387634019956537L
aL6391672009722454387L
aL12701899433347247202L
aL15806082515359664678L
aL9533699722257414818L
aL46681106215257464L
aL12938658437732006251L
aL15224585136017165667L
aL14978520331086664687L
aL18088184949266948645L
aL11731436943806170966L
aL11175121927977083435L
aL6611124254182758268L
aL17647104915217932665L
aL529864282006377085L
aL939175295557503003L
aL14890810363105812450L
aL17853705205839290012L
aL17457813935850168435L
aL1085415372679610179L
aL573133035163903947L
aL16518034282473057326L
aL15198202861506085303L
aL7812621422501173634L
aL8093124513837229805L
aL6058856873870565198L
aL4625779835112133283L
aL15400013430731534895L
aL16700716130805615689L
aL6351904364499702553L
aL4178114693273461708L
aL4712643317693596595L
aL18008700072522413361L
aL12262160517190821356L
aL10579749347669251159L
aL8092539284731607272L
aL5728660819323947376L
aL16976330341475739135L
aL17379565121699581004L
aL9323604361489005927L
aL9560451646706413092L
aL2092280675545209743L
aL4011575855817276155L
aL3641526480604934282L
aL17733410369462345661L
aL7948243677398628473L
aL350343452708268012L
aL11826773174795078222L
aL9414756290908628143L
aL5964239370783876768L
aL12445521231679372156L
aL14331279035884520699L
aL16493138318087184882L
aL16187119748871595672L
aL7872771875502966338L
aL9335144740801386183L
aL390689199252715712L
aL1340379088123408935L
aL16753279298646872397L
aL4693954555845101369L
aL13898890742027118125L
aL2951283477509045561L
aL9147291276538059951L
aL558769416485820238L
aL4513404865973432546L
aL14443956473314234042L
aL11876802893938890559L
aL18099319426636521575L
aL979040414266572919L
aL453219467392472746L
aL11769873917639324341L
aL4515088082547173349L
aL17668066819552876404L
aL17336793869837902162L
aL11439758260889949695L
aL11085776715690089186L
aL5944541903528224546L
aL10485105311324159177L
aL1988139822055890471L
aL12293642749251700094L
aL10771243918951508432L
aL7477978938319400725L
aL3698797622154565953L
aL12142595497114733315L
aL1381956374085276370L
aL17583786843857412268L
aL13185662930946409266L
aL9280973788909016306L
aL2984023116931444845L
aL12497519484008928682L
aL4231783604498097725L
aL18328799110248569019L
aL17550497769293068261L
aL17909402766270655903L
aL18157910689996189963L
aL3370508072095827365L
aL14068504464670605872L
aL13586736944129706720L
aL13660050637783813914L
aL4905775902706721724L
aL6827503421874012601L
aL1836000187692825630L
aL12318417833396243104L
aL5749158768091498590L
aL16253387933405929316L
aL3918179798736948974L
aL16293657337405511672L
aL5624577039078725577L
aL2934516847120150630L
aL10727107674781802481L
aL4812058962949747644L
aL2030898239673371176L
aL9361464415558184516L
aL9184895054301535609L
aL9054971078981642090L
aL6962720333830655469L
aL14942969113175273894L
aL5538951766596097337L
aL13019195202760047475L
aL4624718571355692199L
aL10354312718338778358L
aL5092548034691691004L
aL10295861616299335912L
aL1859442217207868668L
aL4729782130046787238L
aL9013160266145172269L
aL14912280297480257143L
aL12214193910114377049L
aL12213237911010475743L
aL7506699023322688209L
aL12590873519687544157L
aL11072952280187871445L
aL1539083876446405792L
aL615097109253094259L
aL17819681812923289175L
aL9503603882476374707L
aL7046089577036452244L
aL10568902056767840062L
aL18310292342319650586L
aL14890899688456547229L
aL1033274116478795011L
aL8524494761914082471L
aL3509438844714997565L
aL2481418507711258432L
aL4070719507486915501L
aL4332128117167401841L
aL13109701189088047722L
aL5067488552412952917L
aL941028577829441261L
aL8207733673773798662L
aL3965105795094861952L
aL3103358186582296154L
aL15513589019757485731L
aL11843658062420467402L
aL11681598573860931978L
aL7174022143034878971L
aL2471997694946121605L
aL14086745757479435626L
aL14505591405004630629L
aL656950871069259221L
aL7062179201515735060L
aL7328143615246308651L
aL8920881506775011139L
aL5599953607466910595L
aL14320394103240275041L
aL4810673559516900993L
aL12605978766301929924L
aL15723776315645047716L
aL7743325968941116905L
aL169419863311351361L
aL10634400283431254038L
aL12322587699285668522L
aL17798402297550348502L
aL1105550557338197991L
aL2259633111959833089L
aL17552228742695655799L
aL6598721004234944253L
aL4184383759072584696L
aL7601536514285259568L
aL13016397351822153509L
aL7770222771542134105L
aL1894419442174548434L
aL17699814224488609800L
aL7257406163655127724L
aL7692325049947186699L
aL12100028267159139788L
aL1559548499347140958L
aL12626681004343083826L
aL10500366133678871268L
aL14365515592419401245L
aL13458400939408660320L
aL10510954483486916068L
aL4801467870005131946L
aL14072788935392248535L
aL13757618525996690299L
aL9769200019489152862L
aL7770223975499042751L
aL13390872716177204125L
aL4579433751935962307L
aL1980748024596342832L
aL12290998488141071209L
aL12411646212626361325L
aL3003023290208375123L
aL539484967019388723L
aL13650367591293904861L
aL7682797034488904397L
aL11021687348343692006L
aL1822808227056757829L
aL7547390708664483098L
aL10732385325362855491L
aL21463888257596335L
aL8889259146868906189L
aL435348614087277208L
aL14317149137734438794L
aL14766739169161019183L
aL4365438399886911301L
aL3365653388278988905L
aL15082945594965569232L
aL16083711681354911485L
aL13173564559691276585L
aL1850736531612258900L
aL12751905642493596749L
aL17668099261320855327L
aL8890195527564067564L
aL15864145820015627423L
aL2058624376377796343L
aL1433497174744043506L
aL16581735733233677269L
aL12180299362103769166L
aL3018992912826347906L
aL810443235621724431L
aL5680238435015032937L
aL11213103555179400252L
aL2765737253718015257L
aL12785718700682035656L
aL2370860685985665303L
aL13609521741765576013L
aL820035518820858846L
aL4905313159510165582L
aL4508026527285145544L
aL15818398671614366638L
aL15661143819679322432L
aL7171409963928836546L
aL10586287977040481274L
aL7107206257430534572L
aL155005104344299399L
aL15867133348274512904L
aL13212973574830845042L
aL18293744747610613323L
aL14428524526733044203L
aL10503493941819757693L
aL17249301086764091602L
aL1589636748788966472L
aL13625203786824508727L
aL4074265893320587338L
aL5570314088136005582L
aL18399263841601875533L
aL15782743368862503183L
aL15830620726330662556L
aL15296291919544409140L
aL15808812065325066739L
aL14632928229625593160L
aL14997701575933826690L
aL8371892050390337330L
aL2085599317203164875L
aL9828051659183064896L
aL15992830158108490144L
aL3941422155670899346L
aL8723998198626342191L
aL7253523085862335512L
aL11123483161610898265L
aL10526886543971212651L
aL6647246374780955896L
aL14642473814499852178L
aL4864388658683815775L
aL11762454198822158673L
aL14228989875614418519L
aL182718550765838247L
aL8530352839350545127L
aL15243505941527202086L
aL17359277031041258540L
aL241344366379280561L
aL12982574524503827074L
aL4745555957220424566L
aL2227181208614234769L
aL5751400551042780139L
aL7064558234073861388L
aL3921608180871861782L
aL17266064341000832822L
aL18019709017332913561L
aL2388690926919250347L
aL8173959047561786536L
aL5814862476599020714L
aL61136084428193348L
aL10887436962327346117L
aL4543632898053062929L
aL13796578290422026694L
aL4024297909241588530L
aL6684519966701450777L
aL5780779838888940067L
aL17228305542780408441L
aL8026974665408471756L
aL17809441536191823898L
aL17944159154912311199L
aL6192974629808809395L
aL14793740746846872373L
aL15843143083362055609L
aL8319686692509197150L
aL4858029579823715550L
aL2607892895071802183L
aL10401732826000200568L
aL10549102113563578346L
aL14990493728556457964L
aL7374125936125976044L
aL14760933114264423473L
aL11198037512230476732L
aL14479981299757898545L
aL2498627948503160839L
aL8341697093152864042L
aL2978586555351742500L
aL11690253615021907104L
aL651602571580577515L
aL17100537167006947941L
aL13762138188507310503L
aL1895967143980399934L
aL13125903333198809319L
aL8794167311598022081L
aL8577292608542180341L
aL1679276133012460119L
aL11346646766781755259L
aL11135887566746335800L
aL239249916401575526L
aL2710979308133405406L
aL8049441911715491784L
aL11446028903400494022L
aL1883831426723979781L
aL5137823922815517252L
aL12485845096694389899L
aL1853252533903364694L
aL11630255559166494263L
aL1235970142349168662L
aL9503675441735840113L
aL16381149937091605168L
aL1806612592841435272L
aL16984772833246837156L
aL11843128757957550211L
aL14327628279576600557L
aL18375535836912203056L
aL3595253528031664791L
aL4373787057921789563L
aL4365684482843174401L
aL8712341660774272645L
aL14100262505333045525L
aL10079678375427555956L
aL203386888856852199L
aL11290649035568820615L
aL11238409526508879906L
aL4805019321054349900L
aL15579225378621215490L
aL1211072541113087382L
aL11070814088012002951L
aL5097514551529305558L
aL3326060614806458255L
aL3971088410986078859L
aL8363845215830412155L
aL8200490187244884467L
aL6479354326290641960L
aL3584946351985017156L
aL17403417321461274768L
aL16714136788616906176L
aL6552961705215587841L
aL10394203201889330052L
aL16162530598662267300L
aL11527782422774765944L
aL5432726353169895155L
aL4785007240878063880L
aL1288192209477554100L
aL13723339583411497033L
aL17025926610315811538L
aL7721234325276260716L
aL10885311541754941732L
aL7454116744060626875L
aL2924932161580299485L
aL16385267522054820771L
aL18264759738654681333L
aL15210606475908682550L
aL16824310399603195906L
aL14446276137137399628L
aL14852043764549644889L
aL7849837421904422681L
aL6559373350395451132L
aL7305353569281956150L
aL2965976233782523781L
aL8782225182563436947L
aL4008103106040240812L
aL6373566447983162977L
aL12119068706332017166L
aL13560758573019330260L
aL14044245078816425199L
aL10031521966266960073L
aL10796718117773247383L
aL14190516151305655829L
aL6269948825207663894L
aL10129976572051763555L
aL875535394121856945L
aL9732848611167957010L
aL6189916284510944340L
aL5517769244541881228L
aL2686265131223378715L
aL15779289510546877473L
aL5802949258336660722L
aL6901063664829631446L
aL12168813445921669107L
aL14987410967794068469L
aL4037587118229462762L
aL5161121684444418543L
aL18445025052167478485L
aL1952482705766363558L
aL1021160868916205169L
aL16686732982899687962L
aL4829269679403108102L
aL10089691236639281152L
aL14762907314444456377L
aL12667688831878209899L
aL2297970053659238143L
aL13759111884843456011L
aL3938717848188531111L
aL15609246795854776865L
aL15646711610848490634L
aL12983403032706516502L
aL17528763579035554536L
aL1495107071684890685L
aL16989529835941670028L
aL11195659512588599518L
aL6875557890009156593L
aL17824760850682805264L
aL13956167983689223986L
aL5563271653809945893L
aL2707001422594899990L
aL15924189983628237098L
aL9778318777155994639L
aL8229253063492590684L
aL9826761256463930849L
aL3912669559031020160L
aL8778283272422930169L
aL14789210390897589001L
aL2536083308824849348L
aL11340281891493071038L
aL12079966359643365998L
aL7970058733320594810L
aL5355711655500960325L
aL8409441788945148325L
aL11846434719301258988L
aL16061945762971218507L
aL10662906837615957751L
aL18378478417006054005L
aL4612153579943988591L
aL6859138872974702784L
aL10332452574962275316L
aL4814483675501929264L
aL10931922064102187774L
aL229842331026984512L
aL12400038742137679054L
aL7548433999906050412L
aL12545719112013992312L
aL11681484844209375673L
aL11218875184454556675L
aL13835823157284039969L
aL3756786072408619051L
aL4070309003794567985L
aL10298635782576919255L
aL15430440721573608948L
aL1298842105496003416L
aL6026626224959629978L
aL9357174015089999274L
aL13876048301825796222L
aL1884608934258429848L
aL15471267069728877700L
aL7401702508353784843L
aL9839794952617983944L
aL7252200006065028274L
aL895099169136253498L
aL1487593103763924880L
aL10913817059311074292L
aL2754675735416320729L
aL16872360180096416367L
aL8670437523682456748L
aL8323121755180110711L
aL5204301413930554267L
aL18052482440492041049L
aL2239074039373325912L
aL1515551650529284242L
aL2683713233610688427L
aL10835544254285439199L
aL7097634297918364979L
aL6357140360510562609L
aL13931300692329908128L
aL12735936774389524112L
aL12998146911316992737L
aL11752175580529238536L
aL13793183729950426469L
aL8848959308535396544L
aL1872306133321298584L
aL16684157164916735642L
aL13430791017988440417L
aL14596672300276534486L
aL14228656625387146278L
aL4146565497295363611L
aL5341625838747611512L
aL1386919151957140703L
aL18103951627314764772L
aL11001818583422440687L
aL3983144113547014053L
aL8131521256487303700L
aL17872154411179929106L
aL552129050125381135L
aL11146113660397261575L
aL7958514505968394611L
aL5501761294145176886L
aL4984753429709627131L
aL13842330358470285462L
aL11210790128951610105L
aL14241074988514456008L
aL10932135102348475660L
aL9038957358241412147L
aL369046005706827058L
aL16053155365809459333L
aL6980208999629296598L
aL1228091672011382341L
aL27947580572448162L
aL4026388351307534395L
aL12579001335364222657L
aL9171879500816348059L
aL6524538063557053723L
aL15124982518069281148L
aL12158063414261712628L
aL9366539074686763823L
aL7112368334823278370L
aL6275367209336206731L
aL506530126565862649L
aL14938825523799848881L
aL2999151869299650650L
aL14097151210500833252L
aL10882285055005798551L
aL12309553186742618202L
aL15812198167221490116L
aL15685860788429798198L
aL7959565124088442991L
aL3134737636937761961L
aL3772320000182471927L
aL14291667634285425748L
aL3601718434031788813L
aL12018136581858342092L
aL2155541002266605660L
aL15264982671995593389L
aL2528658707516801937L
aL6059608175875570770L
aL15639462053158364194L
aL6970250817992753639L
aL9361524645995482613L
aL7368396748062858470L
aL6569648855529163530L
aL16438873613699347164L
aL8279119180382821590L
aL5626937114690425511L
aL3125894901398776345L
aL537946822763639272L
aL9073052601644018686L
aL9844841522949688195L
aL27366519198017935L
aL778633478693514606L
aL3806462021847888690L
aL13528521756597705325L
aL5783945540098522555L
aL775253871007741481L
aL16542532242603970541L
aL1847498396329572280L
aL9432022625284083529L
aL11466815910884574467L
aL11386670898112400301L
aL8904209530766163793L
aL10531204970693321499L
aL4502039925717603352L
aL8820841754745004785L
aL3682307837941310201L
aL11136544460560175615L
aL150400500791149849L
aL12866709380704990237L
aL1675415237127013282L
aL6332860153362362433L
aL8859691504390613389L
aL15313942045835997868L
aL12704596303264839258L
aL12471125905213586102L
aL13501848045127310042L
aL6110393933853324406L
aL11128656842280574149L
aL9761325646690503822L
aL16405826181534633971L
aL6343200285959624330L
aL5950584929885997274L
aL13920088639738008638L
aL14771875920402593975L
aL18325967237403035412L
aL17539247652409884165L
aL5135358089873122104L
aL9850216900064142635L
aL10231893140273730272L
aL10513286840731960830L
aL9499197010248144582L
aL15927121687115823451L
aL516983210972127794L
aL1757062090880717115L
aL8557365840815192749L
aL17041550108276072843L
aL2387861935662603809L
aL423969245197651055L
aL9969432677700323852L
aL10624706381235971797L
aL7346337722074336177L
aL9860729467277676709L
aL9394265364603403032L
aL12007140123432126283L
aL1162017520686366483L
aL16735579618084312271L
aL9728768771323110768L
aL1448605382079455531L
aL9190293773424912303L
aL12214531295199895868L
aL2660575411685683952L
aL14391020447165667499L
aL6563995085034907091L
aL2380409403008600805L
aL17430561401789451825L
aL4927878858336250742L
aL12522077552486809342L
aL13228169999439651773L
aL9207597677545694980L
aL14969104791483306707L
aL1620193930539635210L
aL3051933987986905252L
aL5859659596179152371L
aL3130324856672050044L
aL6034724007388350273L
aL4314801232120837860L
aL8414030078483504313L
aL1542000338317182670L
aL16061503407874709315L
aL10459006158598924662L
aL3063711201989827721L
aL2227052262261213232L
aL718870087839835183L
aL9737532365334603085L
aL11687654171916832526L
aL15398760119523766390L
aL8695950381772902328L
aL14620736929888830005L
aL6856017038937173512L
aL777346497634996893L
aL15486743943005129584L
aL11021370948706171562L
aL276509686817739785L
aL16001031352251752372L
aL1252734577190449892L
aL5457942968805563550L
aL3269313890997069098L
aL5499703005288418337L
aL4748712668064853882L
aL8815703373880507376L
aL15990785978108327902L
aL14239235858109066174L
aL14800100487597122317L
aL4639993492446726360L
aL3884869670171014340L
aL6426545831214298981L
aL10813106327987830173L
aL5899022628491666990L
aL17239888273214338114L
aL13157323639048884771L
aL6738205638353021872L
aL18380751354047155333L
aL6983234206872888020L
aL17632614642795752708L
aL12303403295223604032L
aL8560851092781796168L
aL6219699265591230386L
aL4695479779112080043L
aL1010117034553950907L
aL8925753902573133047L
aL8701301453841944228L
aL12855937757226291839L
aL8788366231554812638L
aL3095411158891461095L
aL1208647414550439377L
aL13285161388259387091L
aL7360631216934635356L
aL15407041802950223100L
aL18105094457888003591L
aL1365084163748439160L
aL9639737169618294594L
aL16490085651927206082L
aL17395991974777126228L
aL12261120049115706719L
aL7008921713988757165L
aL1483786395160003729L
aL12438591490279980228L
aL10378799039654835897L
aL12169126689633300678L
aL1428243855340962698L
aL3108013907378795711L
aL5707093767184996491L
aL9745820512494588327L
aL17094513205438787454L
aL8414438302202826727L
aL11073379706751674087L
aL3035941494885948552L
aL5966357616038464264L
aL8568950244760333154L
aL17533224098857071705L
aL5698782822414959750L
aL4425657141838453834L
aL8947407059666997648L
aL9875986506782874608L
aL12628194394766280829L
aL10809284821537085048L
aL12635745969310660497L
aL11324326339196092179L
aL14306764438074168599L
aL9381610148238858352L
aL632464236857887914L
aL854924644976375607L
aL5044787859910145705L
aL2558648876033214204L
aL11807213080629651220L
aL4018596823135442239L
aL8640972222128468601L
aL12643825042391575219L
aL7087039414907671294L
aL6522674082137270708L
aL15536972112499528344L
aL197004862214589634L
aL11079186803797798389L
aL11256178360607214471L
aL7794575015750934839L
aL15966863275538940113L
aL3593454373521325484L
aL4025910962221549656L
aL2718143980285454769L
aL12634512636198940327L
aL4658252378862076775L
aL16452543383189460875L
aL2123097433294564202L
aL9136092245010819576L
aL13516796708002136633L
aL957399872635313815L
aL6678479837802096171L
aL15304106045458529728L
aL12989165923708331543L
aL3482012145746209868L
aL1270068724038537208L
aL7885756363002735720L
aL14430789576336234082L
aL1578270344762385037L
aL4020449886002903811L
aL10011933244747680060L
aL15206186659626529490L
aL18406283286813558315L
aL17399755653751474196L
aL1152359858176442800L
aL18296576355085810748L
aL15553384647775230953L
aL4905993304963879241L
aL16528345777466716991L
aL17136773188891411850L
aL10962779443094461894L
aL10498841780986567038L
aL5441575680803652077L
aL12597584865764904055L
aL10382278437431641354L
aL7797315318183162084L
aL12669871718271188984L
aL6387607860203915607L
aL9358419425430769628L
aL621079570139412117L
aL16913287938404582888L
aL5051118277155310698L
aL10157122073981819103L
aL12671726010953207948L
aL16481050461799277017L
aL2498012935491580307L
aL10130513506170661638L
aL2129938960715353984L
aL17383578863841152095L
aL3843785559263489151L
aL16031630839047747540L
aL13922718269556876455L
aL2390783735564915813L
aL8153045155679667327L
aL14391530997606374815L
aL18142187129401995280L
aL1781118325979829527L
aL4536541258862860917L
aL15016257484979898414L
aL11176342351226852922L
aL2994866504745019084L
aL3928656613888704358L
aL3794753885294036389L
aL1329148499060604651L
aL11154545011112567521L
aL6561430938405290476L
aL7102149463044452138L
aL8436850405479683255L
aL11556515889644012028L
aL15810388999743104711L
aL12964285440937540390L
aL13767695727143935918L
aL12114646171769120650L
aL9049381312677644247L
aL9067217675933166240L
aL919668431212326642L
aL1368013300696393995L
aL9239295664118711569L
aL10843100807747874088L
aL6398883739043681834L
aL18261539002691588433L
aL4039775215980888957L
aL17613119743573699486L
aL17821587463419466611L
aL10654209435139745665L
aL10671131414928268325L
aL10866621001077146441L
aL301442130036100434L
aL13395347477411705000L
aL7005978266725909760L
aL15125815713150949458L
aL6939308104649446543L
aL12981615810472664756L
aL2723090562882084596L
aL15862108909681308300L
aL13849099011295810012L
aL11064010364936705020L
aL8374662466091515521L
aL15612146501014573965L
aL15903287985119067482L
aL2536755041689531197L
aL9559113393648002435L
aL1474774514921366386L
aL1690145012664743233L
aL5054396054028507459L
aL3662783028856736461L
aL2454438049815138009L
aL7833398912770252799L
aL5544612193450443863L
aL17412906787208817171L
aL1303901322512229052L
aL10231289288358094669L
aL13024050068445757893L
aL10015355866475648500L
aL18068455217824545378L
aL9815702133772219369L
aL3460091625025841094L
aL5713872005160777255L
aL8517298521435225948L
aL14176923867312561287L
aL17908622298596788185L
aL10025280916368457222L
aL11079474675446857715L
aL17971595253925213090L
aL3357962697887011778L
aL3346489034808317114L
aL16298279277842258688L
aL8037103823123227517L
aL746813452408094268L
aL2872179030329272060L
aL4184430440534730355L
aL8590282587546856280L
aL10156952848610135952L
aL5749226660553669186L
aL11943840129654679865L
aL3426182313500278006L
aL16544007370099114345L
aL3024087000097212914L
aL4323211925217901265L
aL4645785983005019858L
aL9707325744730497186L
aL160465187689358278L
aL12906105593507755418L
aL5088868080093906879L
aL11090674479696443225L
aL74554143750064689L
aL3444382300179718873L
aL13889546925301327227L
aL7734223282851694001L
aL9245612774146234215L
aL9462792956618247229L
aL16517996245496364527L
aL3344499322542822217L
aL6946028579282798671L
aL7170076638480156075L
aL16316019050652682708L
aL8371863171002760003L
aL14272764548058993757L
aL13900734123257435084L
aL4930223916358541988L
aL14293642968421259123L
aL879828854162258899L
aL10024476809004114548L
aL8210497117117430324L
aL14614241114763819537L
aL5810006304219960977L
aL6682673698526695947L
aL10269271871368875615L
aL1108229525956331526L
aL6968456741565423039L
aL5232110015324976550L
aL4863003516677179255L
aL17725654732335687189L
aL2318488658346169668L
aL983989505458668619L
aL17567938107708290675L
aL7242658795622487844L
aL14976152136440300841L
aL6562600036404080077L
aL12128211074384792720L
aL3785858527696385005L
aL886258611180869360L
aL9243015042887494026L
aL7067022303933894559L
aL14393520197630916136L
aL16592497416528142623L
aL12664795687514852618L
aL7081601413240576132L
aL4470591520736897532L
aL9255542353328159527L
aL360438673212184878L
aL11296661957010760722L
aL8919980029140533990L
aL4106832529151092864L
aL4190759472383244697L
aL6220437483450996105L
aL8781777507474188474L
aL5865009257698573564L
aL5952430838169625344L
aL2156647927641930170L
aL15173648770960568015L
aL10689914980660389610L
aL12897877257503743803L
aL4667117090785019061L
aL4289576995502990009L
aL10263202732983182132L
aL3449887782697386652L
aL13863972048424420593L
aL4108145900062758813L
aL4499725984350965044L
aL1069238171200364501L
aL16064949411070871803L
aL10808901136502097062L
aL5810165547126165090L
aL4238689857716527742L
aL14246116955701768324L
aL8861449032783940576L
aL11546112879861140073L
aL5119021917887557692L
aL9514193517747806981L
aL14117654067881416797L
aL8287965128130728342L
aL6981531629239501406L
aL8106245217980414970L
aL3879157456051722412L
aL2886325720159635198L
aL14738954007733843324L
aL17841043618669213326L
aL3121831099837010146L
aL16937633421946785384L
aL8028314769383125658L
aL4149486420053964968L
aL8200404036302718316L
aL8377858838190437829L
aL9029064473463892074L
aL15164007129472144787L
aL5649626347652291255L
aL14932145184108731883L
aL623418255169812703L
aL12987350495450755601L
aL3619268173450557777L
aL15949621088815369327L
aL1935842630728617837L
aL9798779276593400478L
aL12537747152202227473L
aL2981458482694368854L
aL14156512328042632651L
aL7766479133132219133L
aL14332746467606059811L
aL7453542441691639747L
aL10198504887428136637L
aL9324057174026975619L
aL7663158756704669980L
a.