(lp0
L16742984124704746683L
aL3385089735488080366L
aL2714981326336563069L
aL11570181223566570135L
aL13914151408583369644L
aL3984496520993748684L
aL1945144744160785332L
aL16801511924438314345L
aL16706675244641322782L
aL5120960512440534001L
aL4171456189890912970L
aL5238318684421486899L
aL6895901890154125125L
aL3033904501525512214L
aL831000166242026683L
aL14753016223257001853L
aL8043863225121419790L
aL3345227654644143212L
aL13746781173913503723L
aL8186502099570276479L
aL13342487172204453790L
aL6091159604447838024L
aL12344971181813668223L
aL13383858709247570565L
aL13469476149972594106L
aL3187377104312756356L
aL1772375663187809072L
aL15575464212282566849L
aL6896086820006911813L
aL6428747688691379058L
aL2782310698652643609L
aL3580295066966231162L
aL17284593689661371057L
aL5413385123143012070L
aL10717851420553387487L
aL17831412090171397576L
aL10184198567244878924L
aL305460791654434843L
aL16467806782604115190L
aL8625633187848091241L
aL12137119758613808380L
aL15377528411689922601L
aL7476906039350623732L
aL3878000983324466888L
aL10252166047220620270L
aL14223109834489531335L
aL784090894124498053L
aL9795192745724425361L
aL12156434888328973262L
aL17259475149017776682L
aL13649486936157552642L
aL12094342041065395085L
aL12988147394447706261L
aL18260606042455763563L
aL8719587873846991407L
aL5659957351112504116L
aL13360655074867054928L
aL15489701671740921373L
aL11788387338636026087L
aL12849746513649170423L
aL3862988989346857792L
aL12123554104276600954L
aL11523069295247060666L
aL1969567739179546214L
aL15794949994182699718L
aL15641848782066856894L
aL13289121930050485226L
aL4079892892318803820L
aL18009306213319784246L
aL2461740601686534845L
aL9758181721256870726L
aL202355233555446808L
aL16340368106730578805L
aL2148628735214262618L
aL16838660597836168428L
aL15637719945435869970L
aL15768807766939077923L
aL13575699450998518982L
aL13025817781147395675L
aL16562649159056794478L
aL13353989252750342459L
aL11099087056079318997L
aL2735795347694042503L
aL10727516236163501893L
aL11504661063500427655L
aL15074338377458962169L
aL423262945554228573L
aL10800986330756193458L
aL4540752832651611732L
aL9929035869708054088L
aL6496846371002050798L
aL12984132645574761392L
aL9234169486790857989L
aL4431145712192881490L
aL14020431250352026429L
aL3012700814817699191L
aL7470795847032175607L
aL8493235498632036724L
aL10871252856267037957L
aL3356186047473021265L
aL16165451097713172668L
aL7926832865730750378L
aL8296537387456598650L
aL18247106556003329139L
aL4015386833562948505L
aL6051381339934813091L
aL14801596338074451200L
aL11787792160767721936L
aL10191727542676046227L
aL9085389212197690513L
aL16139667699185311145L
aL3367342949862324813L
aL16599398235153166306L
aL9742950122249889256L
aL11385098894226847089L
aL6600885299806090254L
aL16679525597646625184L
aL9068159023753182522L
aL14942779702835294498L
aL15393664637011181728L
aL11449582741233231873L
aL14217666871924782102L
aL16136292149665588685L
aL8031350999749425433L
aL10937481353775813225L
aL2822434837973025574L
aL17616239638358353084L
aL8814107121694374965L
aL9818301963120055934L
aL17770250118126968534L
aL6089713627230622135L
aL5172432880252240737L
aL15478518904161686307L
aL17907754546801083457L
aL12923357355054286854L
aL6550018332451033138L
aL648933243382187640L
aL8757701918255429885L
aL10681453989246762548L
aL15474206019450578539L
aL5792315651139218284L
aL10472612873736015532L
aL17522465824883738120L
aL7874225143178643946L
aL1634264421257171131L
aL5805881176190529228L
aL13634079130243200829L
aL8073786983277432270L
aL9355661949447686199L
aL1400881181447284653L
aL7601969050055161947L
aL3775650076359359224L
aL12076597252881948924L
aL11530281441064067619L
aL1761588064782228593L
aL7492525306505834915L
aL5157787113784764976L
aL7842554026117739705L
aL14339887923069721387L
aL14428908748417228287L
aL17281284153732384444L
aL9391242112857285665L
aL13669244261497269345L
aL14363141967323735881L
aL10802456627546326775L
aL9483092359910018451L
aL6652246092794528005L
aL4121057716359922841L
aL4310212185359468298L
aL4255836630901584393L
aL4711848437895422113L
aL18252450795848610058L
aL15081623882368019875L
aL14255327035693150753L
aL3135985258779315597L
aL7864419996400571545L
aL14200750630648566053L
aL5972284761274134274L
aL7356599992397582886L
aL9824820353520898433L
aL18066256535988874634L
aL17284060930142340693L
aL9392248988590421878L
aL2915945230323265392L
aL4793345046449948566L
aL8232165468216283660L
aL18430593535366767780L
aL1452957890217914837L
aL16100590444480110736L
aL5810172552447862796L
aL16205500476089560923L
aL5269274077205943295L
aL5592159075356600035L
aL16039287841442234634L
aL15513360904368385059L
aL11479925246516431320L
aL546409829130216055L
aL6949288263470774911L
aL2215787570914160107L
aL7732586505623712984L
aL9043857174004272910L
aL14459183603082613137L
aL2351988785648986483L
aL4370862304434200643L
aL17448761231706077600L
aL16359518617369331887L
aL16880675341263972758L
aL10024504751361130784L
aL3097904014486274873L
aL10237213092172577620L
aL5630456538299193260L
aL9318935308007656727L
aL9987502789947683331L
aL16889841898851246900L
aL16829461512584300868L
aL17901286877157083430L
aL8570803217742593294L
aL14497386345404810062L
aL17789082066726761778L
aL15389510150123938789L
aL2520371841825785716L
aL16681494381195929913L
aL8590330079556199902L
aL6976329332918643241L
aL3150285647947666853L
aL3965391906655724510L
aL3506832407306020105L
aL16653500472018173313L
aL15259708248941947170L
aL10549165719584580251L
aL7738648446717642803L
aL15857189579827082429L
aL389249882679985322L
aL9365037995577933119L
aL3829552005988446455L
aL4687087637581084211L
aL16546202432195431123L
aL4903705512590478917L
aL8667968727441056055L
aL6492631887115743942L
aL3414010520387460873L
aL14858806485185011248L
aL5856636316554536738L
aL15992700480706118996L
aL15962345491902743350L
aL13573138174070078709L
aL15167776870735342086L
aL16517772663905575018L
aL10915659085833043767L
aL6805542073218587950L
aL3527061645084828794L
aL16385615339129459850L
aL10369523768419571881L
aL5396573212154203982L
aL11888560332805391315L
aL6071648492459570631L
aL2047221078872538575L
aL4227671063430104106L
aL8278563796003782516L
aL11079562186138249503L
aL13309052024069320744L
aL9293188557813163322L
aL11816163941137557230L
aL16905853931863375115L
aL7622053779516475658L
aL2163717947632674615L
aL14931002282778363749L
aL10264735894537209232L
aL16780487201378340527L
aL4276665568274004600L
aL13457618326398168006L
aL7829483529364872761L
aL5331275190238424648L
aL4674851739655768138L
aL9246557092258331600L
aL3662606751195027563L
aL4288741912514684478L
aL17078530657296757861L
aL10688573118017313778L
aL5640921344873396224L
aL16407069928236726206L
aL6577521953342857801L
aL17150895546615915400L
aL11040488247839540203L
aL13751972328917669560L
aL2639705766446623435L
aL8620189909612996085L
aL16721031360121378364L
aL3861607791360132064L
aL880206486120840634L
aL6645612988852499416L
aL11248597977424321783L
aL2423843948177848519L
aL17051485898970884866L
aL1679836815662940709L
aL17892971974886659913L
aL2727166420597473913L
aL16103416103486679475L
aL18038071514009028068L
aL10724450445680890073L
aL1048918741434465946L
aL5749386987464454158L
aL14214049735416308854L
aL14082986547935515641L
aL13626372622408304613L
aL14924808079129377497L
aL4140058691777840877L
aL15431093237233499824L
aL16620056931491075205L
aL13412722985856995912L
aL15130825517742097684L
aL16763537821424575937L
aL5635381358017025918L
aL3407557288115886299L
aL8424555564898342515L
aL13236161980520993535L
aL11768534469652804188L
aL17153709649701032715L
aL14417674641100622648L
aL11981732372716812555L
aL4194753960724276981L
aL2614258940936772816L
aL9811099302199685761L
aL18022041650762498806L
aL12522653089448623103L
aL3967557672430982657L
aL651248897826481503L
aL9734825552499285489L
aL9714419818843570466L
aL9928261469600107391L
aL6277748043659644149L
aL823449290416477955L
aL11762658438039182715L
aL9565247336416687846L
aL6451375841378249252L
aL2984314312444259975L
aL13311899322410053663L
aL17455843988510856905L
aL1906938263491817536L
aL6799349825553235352L
aL5512297273312242562L
aL7506915151774406984L
aL3793581589188058960L
aL7405966759182455079L
aL4866138141519618369L
aL2317489119206059470L
aL6535099049765128499L
aL8532301598236915746L
aL12325573536818021895L
aL7766687112861511254L
aL12939565063020735980L
aL7364171258408193429L
aL11384368097482541258L
aL11739451942354812494L
aL10498917715312491494L
aL4976263631474053564L
aL15418494071987561026L
aL10460037670975314940L
aL4496976182911224653L
aL18439132924650690256L
aL9519447863820611478L
aL8295527643257612664L
aL2275022906855910466L
aL18303717055493426610L
aL7026945599416061209L
aL109632681645273844L
aL5697381499977410125L
aL11202260691099853323L
aL16457644881074549175L
aL4875796056604520482L
aL6949856275580948975L
aL9866607620134563604L
aL18010117976013653767L
aL4087389077976800068L
aL10085061920535470488L
aL16417286534024496304L
aL11068388505476506304L
aL7435801456767203467L
aL9970329521507897165L
aL15483817498247190063L
aL2680908535919417065L
aL16054765473826153700L
aL254953456323361947L
aL9103409183200108891L
aL18442408323673712835L
aL11173544643467059382L
aL16057988513979026493L
aL8809273871213308387L
aL8808107876646669462L
aL7541370180331914978L
aL14509901947511022289L
aL12274872677988237381L
aL18189889678599152587L
aL10230870273153380447L
aL15351110223138033640L
aL9807546153632578306L
aL8381162532931179752L
aL6004911969609737951L
aL4208833687959505544L
aL9373320928244778877L
aL11089579721433579911L
aL4667545523132630527L
aL7278134632237724350L
aL14318201183579807717L
aL6179106006884097578L
aL1471584028596726353L
aL469322497602780196L
aL16394549906249799962L
aL13687714501076563641L
aL16427225184372991985L
aL7235808330166749872L
aL10190657191018058798L
aL9156873893196588525L
aL16296160745877887813L
aL3364994551513163001L
aL5020198718440363723L
aL10150120057427008738L
aL10740261643187540829L
aL3436181624926668099L
aL2267238850062930429L
aL18001715121119011772L
aL4889023777974533311L
aL15042409288658670699L
aL5199259317765777661L
aL5308324227430283843L
aL16019880358102077420L
aL11971720376739393352L
aL8678251918130777364L
aL2873395502265207994L
aL1415708148806613670L
aL10020165557883376818L
aL5417308157564505236L
aL12430007648138363649L
aL12667943279033807909L
aL2875182364404669240L
aL543037526082820572L
aL3915908445526908471L
aL18357302232127833133L
aL17451103073436528619L
aL14873402387142155758L
aL1685043114026405487L
aL2169103580196043082L
aL6969523109804627130L
aL6930868898077646940L
aL15917562606831681490L
aL8183726713381363052L
aL11927677955768457041L
aL865895749407552939L
aL15462119285273656647L
aL17187023950759043157L
aL16509134764637636935L
aL4782512714218715157L
aL11759976592380911043L
aL12884571188811019661L
aL14027898805359417780L
aL12644579147022883272L
aL12789306159261847788L
aL14927589819920688840L
aL10177338983674768671L
aL12738344599817633893L
aL2467507768228913227L
aL16453413062141301454L
aL11838008532770545598L
aL14949729597891522224L
aL15594464571079787195L
aL16100973527262268813L
aL11058757514816118655L
aL13115219911771952564L
aL17009274743923643171L
aL6295583547626338447L
aL10310849707634755134L
aL8112582824712739306L
aL14727469466664247466L
aL15136297946910334669L
aL13901680331138349991L
aL16433952418715413580L
aL14724831425549817905L
aL11883125704889486463L
aL8277494326797063906L
aL16522466518438021999L
aL4179141528959584210L
aL4550665261179586708L
aL15759594039187760791L
aL12478127810136103571L
aL1657256750548412261L
aL13854561156025887722L
aL501326419704672772L
aL8113883057002276113L
aL10760793713507877801L
aL6070857768724671945L
aL12593920003791916415L
aL7922131874970273453L
aL4717840660734112240L
aL15630534073746847294L
aL18331726505107452817L
aL3205551332647791527L
aL9078932990982266626L
aL8497603103071841202L
aL1031942637985516803L
aL1161960187396004435L
aL10903512694552238039L
aL10720987620989102223L
aL12058534767317557572L
aL5891290432034648362L
aL5810189115266613764L
aL17335468654523115026L
aL9718269120538410886L
aL33810119968856908L
aL10500118986971561097L
aL5008865691571901805L
aL1760509214112046566L
aL10785829272910263456L
aL15860966602418311193L
aL16953860955807161071L
aL3593229984802868745L
aL4336264058141541086L
aL10585438222461632272L
aL2294124626423009970L
aL11428602402483735503L
aL2364826510515408181L
aL4351284652400133173L
aL502240249147194696L
aL8330049447121088997L
aL8870243985715323024L
aL4633907891539550915L
aL4941392948586319446L
aL4181962647864802684L
aL7672131078086042476L
aL3374883080491323363L
aL10154056121045985679L
aL14016743416059216574L
aL10086538190084201290L
aL442014250113125678L
aL4680014604926950561L
aL11951953388557432659L
aL7281950669844989983L
aL4490994577070274918L
aL8903070042284269230L
aL8346296190019404952L
aL16706366839616032861L
aL1662553277978039134L
aL3934901112210984890L
aL3142954839101827101L
aL12163597116657749614L
aL15202168550409249997L
aL6783321663469752420L
aL17170219233572997263L
aL1673628671885391274L
aL9145950411359690473L
aL5909230229655457363L
aL4685074845636872653L
aL4210121983816672752L
aL12658492403299754840L
aL2694439717828192019L
aL4419605889046748128L
aL17109330260790507790L
aL17988512746045693203L
aL4091728667952484662L
aL5940792479981905531L
aL9680057425215725748L
aL15979902104608420937L
aL8039700916200837315L
aL5887293966730536727L
aL2412475695091650285L
aL969158021706640827L
aL11204314339249938539L
aL11862112431601474978L
aL7278150975605232631L
aL5888545485202531432L
aL1186828283756814181L
aL12952370233328021071L
aL7949270756299992989L
aL2216214578577192446L
aL13875685294905519072L
aL1456146899582817213L
aL1503951818761605252L
aL13913188745767766994L
aL2608956724553223201L
aL13587503819021821686L
aL5691280561860911118L
aL13695547186262748938L
aL17238895853475032452L
aL14828135884030212294L
aL18347268990624998986L
aL4787371751185203486L
aL10019943063966180130L
aL16985335071146747441L
aL10696642975843477666L
aL16193047396418508663L
aL3910640825956425645L
aL17883557721681624148L
aL8595373629690769034L
aL5410199841821357121L
aL17864818553764076620L
aL2217830577858014740L
aL14016660663187930335L
aL13319951062266027086L
aL9320746814365972059L
aL9464975858600317877L
aL17042768693652270112L
aL2088939876156960198L
aL14662719888277771019L
aL12245124864398826110L
aL18124010084160357224L
aL846798831529126501L
aL17916896399352281568L
aL8766407946744193026L
aL6462950777122054553L
aL6382189581303498723L
aL15655603316332921172L
aL4176523758185859951L
aL1865812834890750582L
aL1735073552329398909L
aL12894772767447108335L
aL3096725314284500878L
aL17802156397737661845L
aL5634900049953676711L
aL15027300787093278182L
aL12266222791966316208L
aL17543280731112676924L
aL15234329101292353169L
aL1585493902433977663L
aL10392702193601673358L
aL8350027229561863500L
aL3417889428155769650L
aL13071816091345346725L
aL8445331835815808644L
aL7362943058118382951L
aL10166322091880387734L
aL16338325514165381384L
aL1916683647072756168L
aL973541864098462169L
aL16043093182895564512L
aL12766305870993228229L
aL9689464791451367363L
aL1780686260000681782L
aL4153279672607188251L
aL1348411600418997282L
aL15842141650106317314L
aL4766201191232838133L
aL12205893350864702909L
aL18324055366091630449L
aL17751861539917653460L
aL7851256113049899362L
aL16746435010242675805L
aL17922490371195910264L
aL9904440638695939706L
aL9551370706018676435L
aL7539172014082560733L
aL5731565484473800055L
aL17326341398132795747L
aL11623336346092601498L
aL341313130880135811L
aL4565272671056929790L
aL6304679640520910272L
aL17797528726679454881L
aL15117978404450354419L
aL3760502550205570859L
aL16552695672734602423L
aL12028257829631080525L
aL14388472627962263896L
aL16767756486516520383L
aL9465683746367330289L
aL18226220188765974152L
aL15256198448122849479L
aL12799607504670038939L
aL331147653964354143L
aL675892212449257654L
aL12833879495970038879L
aL6045047981645876192L
aL5078516880695408740L
aL1749915305162457821L
aL4483747679794525932L
aL8381672026415787180L
aL3505156124637109734L
aL10973718308588892078L
aL534604831066601659L
aL217388092011559298L
aL14869312673335020494L
aL13967312523329470134L
aL6733995393072174769L
aL16756565875547633689L
aL5218879159989998455L
aL17568925062971410173L
aL5400165419329012366L
aL14919797798245549439L
aL5460203094245385500L
aL2599530420738716448L
aL5561019624339819662L
aL681180073188578894L
aL17741206141699718683L
aL2533890756665538079L
aL3864388224806153907L
aL13158664266909788590L
aL5332473447676239789L
aL10801633126750905704L
aL12273051954272255097L
aL11901299986010276895L
aL13290944615240894386L
aL13455174379314305504L
aL12821749648759194404L
aL4481087498811342303L
aL8500632831586155957L
aL17177423561278023288L
aL12275478329504359724L
aL15075691853890241976L
aL15186820017432544050L
aL14864945784813190506L
aL14957385998483765323L
aL2191849707489590491L
aL3063809421411978968L
aL8773958250783766128L
aL8375442816727436419L
aL8312108271666485333L
aL13115077490569505614L
aL5048920255203546363L
aL2020284021587278847L
aL17292454140632536117L
aL7248874464344866981L
aL2176573249200057755L
aL3477819118758997148L
aL17555569545454163551L
aL8380511880302499655L
aL12764216602598228944L
aL3498049042196209966L
aL5898399394832287753L
aL8569151372921464802L
aL13089407446883916743L
aL16390666464688270005L
aL12697605608542579494L
aL7169782493597395622L
aL3831952128841438464L
aL7979832884419309109L
aL8063978440835293490L
aL14340965475685012348L
aL286438749317418356L
aL5948638528600352449L
aL10722719985567535348L
aL13607459066331246586L
aL3371245751557636626L
aL10808155207717314428L
aL6523018956308312570L
aL15914384523924293709L
aL14909578021489071294L
aL5527358676648359132L
aL14702416493008045227L
aL9077446692750219175L
aL2186088452714010144L
aL11951792262825485291L
aL13424795584126932201L
aL1146506378486115945L
aL16529435747369234991L
aL14244445564529743401L
aL11459216928475083597L
aL1149381736422387312L
aL16989421571502019540L
aL16271819958232201051L
aL16570583216767214497L
aL12393780920629333226L
aL4087369407482836634L
aL13895418749335594329L
aL1623728828451652886L
aL4868134703164546766L
aL16900923856421168675L
aL3264847979069710803L
aL12921621024354649000L
aL15753958570837941953L
aL15392365775847292121L
aL2575049497044205327L
aL2928327727306037870L
aL3824091362477644867L
aL17247653771949181290L
aL5958206518775410667L
aL267226428611721192L
aL5113570032384862851L
aL12434229819716041943L
aL774036466003546685L
aL11743076856185633547L
aL16542789131072065588L
aL341803749341667493L
aL9165284034761992089L
aL13689725719615829669L
aL7323055079659867053L
aL4294171232852828241L
aL5881274346568456051L
aL2859921194011557975L
aL9623246383152983769L
aL1320688140135704529L
aL669354062505824079L
aL16716252132354601224L
aL16725936906217330497L
aL3202347910927712094L
aL7413304411976098787L
aL7385812284309490048L
aL9675972862824518662L
aL14972013648010521815L
aL10958512359884293295L
aL16827992049796919968L
aL13986266458553131916L
aL18378485546331233949L
aL3665687853493951288L
aL4759310012851587921L
aL15595947356007219725L
aL5501852657295943825L
aL10264102502396941432L
aL6976080195417970274L
aL2638362216448469693L
aL2746781031124743549L
aL3096077969113476372L
aL6029661341836339633L
aL7562688406448655483L
aL8412118079283475283L
aL7503271065921594138L
aL5331336658239346570L
aL11777305445935089409L
aL4182524393284783632L
aL16999418732784109376L
aL2683426188988710014L
aL3697503198321134541L
aL10191312557275387920L
aL5182327313292287917L
aL4391374048374305170L
aL16867867752290533675L
aL3061004967519148462L
aL8713139750568286823L
aL7071503180597172028L
aL12243105562732310845L
aL5378437391153470494L
aL5161029415970204795L
aL9926842078088609487L
aL13099772388214261728L
aL3353812113314362981L
aL11558805429249925785L
aL17000934543850554743L
aL7712634180014556170L
aL6387667454461556992L
aL16945376923467064391L
aL3615500868190975363L
aL861649346080728914L
aL11203028630583104957L
aL15992472465265537654L
aL7749917553043445508L
aL12351036416104725216L
aL16212280220644655918L
aL16271152589920252041L
aL12636201116874518749L
aL7634117130386036669L
aL13684045079368107536L
aL14247304310785777502L
aL594570164101273865L
aL14652045114654515593L
aL2671491691903838547L
aL2869720853376835919L
aL7801930951547461502L
aL1920598774123196736L
aL13519315104186148690L
aL5989312684165060513L
aL1507384969365046522L
aL17351478655656010106L
aL6377095065696710525L
aL2188896173648027341L
aL10654659177196856258L
aL16721094800725199157L
aL4990791344140186972L
aL479846984698754105L
aL4995994826022374303L
aL14685481361014624679L
aL6892373163338803048L
aL5366984350367343571L
aL5339635280351442563L
aL13762489771811072897L
aL17070698601104251536L
aL11379772429709240168L
aL12840178334363202258L
aL14649746121362309142L
aL16720301035162496081L
aL8652895880586170832L
aL16635111009545100797L
aL3094194831096124019L
aL6183610800661822456L
aL11471906951072728701L
aL2127073769321734552L
aL4979518252621781862L
aL4168271751616106370L
aL7340620570390162143L
aL2495948289768574066L
aL9075262510740855292L
aL5085190446465911854L
aL1598717015666057475L
aL7492567786572042776L
aL15457775296822128607L
aL8234780376478577227L
aL5300626380739057038L
aL2972310074912527732L
aL9899124157572440964L
aL12270672957359770814L
aL1737913199695998318L
aL16001146709097292899L
aL12375675869802055612L
aL11162947090564505226L
aL1548848133845292703L
aL7497049490159710529L
aL9967496410532136914L
aL6770994511058331980L
aL4874919161138049849L
aL11539752487160401439L
aL3660642106294545841L
aL10488487641719627440L
aL2847495769198969360L
aL14278291542982249171L
aL14869416469318454749L
aL13479138134523979504L
aL16679685451178574269L
aL9131457154455032234L
aL11474975470788611881L
aL8512229474817035222L
aL11124440034692919198L
aL16265553914223074457L
aL16308745968696172924L
aL5594648024424753169L
aL1601331251764580083L
aL15275660988980064276L
aL14818335759719106840L
aL13839629753112303312L
aL4955421659878905161L
aL10841875856132921742L
aL11852119738865287353L
aL8784690981966299175L
aL6352880419262555753L
aL357413437380925343L
aL15787847351255097432L
aL4521845090059968201L
aL14586680309193498400L
aL8076107998722486416L
aL15022027746412056310L
aL6724805280201022174L
aL16510404024189581248L
aL88029183544897586L
aL5578964567555225893L
aL2049159318824882723L
aL13322732261267051807L
aL4125006678916547803L
aL13295157318225618844L
aL7973586708319054765L
aL2080052463292212736L
aL2565616885567961054L
aL7476521243196350415L
aL2988836875764228714L
aL18386931206431290135L
aL9237393112196880593L
aL2924190426903524602L
aL12835069676660908727L
aL6283231933426878099L
aL2596637429511500170L
aL3074845977166970279L
aL12065372098123251498L
aL16329840956988481360L
aL10836265326827543840L
aL669214097634430524L
aL17088248539400946202L
aL12755162811341060766L
aL71347354978295804L
aL1550514532081588538L
aL7246830447605685652L
aL18281147016058559643L
aL12674039692273462530L
aL12730017440112543328L
aL11190112862716658592L
aL8696645680474658976L
aL2218101700240546512L
aL16582350669954000686L
aL15510723700730705070L
aL2812302478006818321L
aL10497985567107075628L
aL9603281489309038830L
aL4026867841443166279L
aL15433086850070286561L
aL4336442383643985701L
aL8636120607271987775L
aL10933885950681627822L
aL9650439077724308074L
aL15713026530198244567L
aL8530734622892902945L
aL4025730007435139914L
aL3909972332640984470L
aL1878074242218436974L
aL15114432888786778011L
aL16781145778287089763L
aL12674102616480188724L
aL5552735158563057029L
aL12724445278449278000L
aL10835243929118154557L
aL13243267799539409061L
aL14886784226574047371L
aL2242006447333734327L
aL3416344833073884392L
aL1005568550588470882L
aL7070185297540007062L
aL6778464686616508989L
aL5934813576843780347L
aL4469892843937202274L
aL8331916826220047553L
aL12531882416998400150L
aL2972914859512765243L
aL13100543467908157300L
aL17988343513853518863L
aL1694635168690643625L
aL11149283477069935163L
aL351688787485331498L
aL2588563150256229413L
aL15141377873007833895L
aL8947314691224420658L
aL14246461357909297836L
aL15714791888093902284L
aL1451653477391467720L
aL262789975408687021L
aL13173812343083570206L
aL3771565149887205698L
aL2642480825679301592L
aL5789760708692970656L
aL9182040861128864082L
aL1396408275204944461L
aL5507023717912043942L
aL12982580362238761604L
aL13729282323741398417L
aL18335547600507673440L
aL16712431276080194843L
aL9018241106594841914L
aL2953496518484959216L
aL16329234803108774765L
aL11717844478514398356L
aL11030044838024467415L
aL15170729679347479304L
aL10504446345458309635L
aL9512767054221147298L
aL16068264764326016308L
aL6654954128279530941L
aL4217476658295891534L
aL9809153091428321328L
aL3759740601790830620L
aL16240369496155499951L
aL13455556114961506904L
aL4098821339297118748L
aL5161575447761051386L
aL12505821715894480723L
aL8408176675272990547L
aL6685426636541921345L
aL11458561422844225626L
aL4271949986154145820L
aL14904833875203699577L
aL4811222275285669015L
aL6704004864482174844L
aL359984700452191188L
aL4689720703948609107L
aL8054738559536943786L
aL15627279992742300548L
aL15596422541174010191L
aL998354730890672755L
aL1641379531007312635L
aL288959699948614184L
aL16444084596615449086L
aL17465210475398337900L
aL11381097021908594812L
aL10795418911618161003L
aL2625065488611292770L
aL17736992405105921425L
aL16763903766006515173L
aL14959995443451564436L
aL13569852659969849659L
aL12790033179816981952L
aL12506007741349428397L
aL5608102227344367579L
aL14485681925272998648L
aL218164916433028316L
aL6579399494434964917L
aL18169572618412669879L
aL1108520131882379445L
aL7593634641698591404L
aL119232161937174245L
aL7589977917076265533L
aL15819463912178026547L
aL12196629262277748964L
aL8891430224349150682L
aL10231650663763103917L
aL14279657627789659338L
aL11874888791270953979L
aL4160094574588423704L
aL2035375777717996824L
aL9237129474071179710L
aL4321048193663254397L
aL18116736875149371546L
aL5173972358964114352L
aL14441212051462965809L
aL3792843348320689187L
aL13752809289186288439L
aL6306470494920155064L
aL16154640254788882149L
aL5492197308285822651L
aL12469972187693792671L
aL8924654624683260176L
aL9280707845751490863L
aL1967840912180655451L
aL747899551709525619L
aL6712497462336127254L
aL13203437220879493813L
aL7898343328137787084L
aL9362430771814995951L
aL8871962208163963602L
aL3454339118114326412L
aL13297729987955667783L
aL978188392046060581L
aL8532731615555018172L
aL10225139821440745481L
aL17708823998900491142L
aL5035938759432704264L
aL17092687116925245579L
aL6943283695575977081L
aL4065472353865592401L
aL16476685920375140591L
aL16947414964968482328L
aL11118341964847938549L
aL8193893202436273766L
aL8165798387403499327L
aL6265460718177231078L
aL2580083387151042059L
aL11033988729997478945L
aL13395993780989441373L
aL5930655606641498745L
aL16107622858959925856L
aL9918472473479044599L
aL8140517211435298012L
aL12348130180299391161L
aL1748425138765363654L
aL8722442716704258253L
aL6991917114189381859L
aL14599402709617495632L
aL297046591097472716L
aL16445840983206840710L
aL7822280877316726485L
aL18115664140354099767L
aL3155239057269045317L
aL301498504325527935L
aL3218861505305528439L
aL11384699457826559830L
aL3026554638890067862L
aL3219918340910410301L
aL6908095181689156781L
aL1424117736480942628L
aL12482214273523904793L
aL12448514247912588935L
aL7726785022647378736L
aL10474651014861929497L
aL6234110657050195160L
aL4602298162388665346L
aL13914161801527110795L
aL17877711176269729645L
aL11572340373577653609L
aL18186190317134486852L
aL11849022952835595840L
aL10254405620050418295L
aL13169591776380162816L
aL12217776009838282287L
aL10678293719311201561L
aL16019251484045398258L
aL9164693563069678761L
aL6596437202962699278L
aL1406340952752570907L
aL9600096196373015116L
aL13918946640716805655L
aL6158886552366826667L
aL14923790435298680861L
aL2789246683891241067L
aL1988170356972039830L
aL916198968065104471L
aL16173153442321149066L
aL6870232770621739615L
aL801984668090599323L
aL12388435218610953990L
aL18304970191559509044L
aL12416618931095241550L
aL7389509942290899773L
aL8357605269644393570L
aL13326815599229344605L
aL12925889135525431672L
aL14971715084677118751L
aL15076768656654660178L
aL8670754030912144627L
aL924364917417986828L
aL2632712338945457875L
aL6922047333976300103L
aL15753318866593210354L
aL17345563117870875430L
aL5749201961305931673L
aL15628530579512849500L
aL16432262573434476293L
aL1324670717053835389L
aL1673580678541077842L
aL12658224368697659723L
aL6904818788900129457L
aL10714815369826537468L
aL6853073146791963595L
aL4205843602682523035L
aL5723124180311023212L
aL3328396114958333411L
aL4868023770493164526L
aL14160629624912322973L
aL2812054883945338529L
aL214782601966665097L
aL11128682810708055143L
aL15640106343166899498L
aL13478978030724207776L
aL15091663019048778379L
aL11395268589233362069L
aL2818575262549475221L
aL12235796586580506335L
aL618093097157424480L
aL1820845429199580006L
aL12824552545750964338L
aL15104060962676546951L
aL16943202431443311269L
aL12817871871023676210L
aL13474795896443960235L
aL11967089056055592444L
aL14993429421389996556L
aL13498711054425404486L
aL97725143361721688L
aL6020850404647542198L
aL6697004988973334684L
aL9753123713349566712L
aL15671589419838394503L
aL14371372436794945907L
aL13969481075120067542L
aL10643859498586534975L
aL1897848280350510421L
aL2465087317487938118L
aL8757496762553016177L
aL11893026666527699499L
aL2661898342617153005L
aL11695089167975604678L
aL5252366869991234479L
aL14986473354020516409L
aL1864387290997916298L
aL11666134825275252493L
aL8661850114732544466L
aL3030976757137022193L
aL2214565451020177888L
aL6823078819705210984L
aL4688596041468039742L
aL7619722566059023101L
aL10295176765354407560L
aL7096025072286122369L
aL13842350833376277679L
aL11611682483043441198L
aL14821950299557225173L
aL4903944162954285757L
aL14267627054192014980L
aL18369939067806362767L
aL383870218147096635L
aL3507598217281654247L
aL4006448686163677913L
aL7846519784593023133L
aL3457856581687560809L
aL16239643247407112107L
aL40565210063470593L
aL2211777523979338756L
aL16536722973951149116L
aL12520559351054112768L
aL15942329673784430105L
aL12215929137992107406L
aL6425694690558741345L
aL10196788139927908919L
aL11891456970529136880L
aL11407933092359710440L
aL7536143542305576051L
aL17226800384447756458L
aL4553753854404767048L
aL10053924448966004189L
aL14236712072517040086L
aL10848370255686642085L
aL661819569434622359L
aL6878122514218841514L
aL4038039332235142875L
aL17358230249548598607L
aL13476495344099819268L
aL10663689161581186193L
aL5671816478806292532L
aL868151765820440151L
aL11503872519751446399L
aL5059928262629143637L
aL17095792386718406743L
aL14461686293098239116L
aL2649731042238013808L
aL13106126372246584985L
aL6765824423171577921L
aL14710643138060624526L
aL8282486107084130477L
aL15185524363523562565L
aL13403259111194568654L
aL18112659616118398355L
aL11831960143004648041L
aL7257993769811477851L
aL16525719243092869023L
aL3553179622756081255L
aL7796225519891010850L
aL9324601727022729746L
aL2762992982927271213L
aL189660975902664500L
aL11827678310660866439L
aL5865685143446882893L
aL13877349542649271526L
aL16337688295597913386L
aL15177883452075571455L
aL5027266727770376073L
aL6541461963893580709L
aL10600067906039332714L
aL17648009529080156508L
aL7841134097354970946L
aL17621912718027306315L
aL6674601106972941528L
aL5708194525312766297L
aL17306220661455099272L
aL5180854877030360462L
aL7526899669060766812L
aL5520418781836613485L
aL5372025356429724475L
aL2578224311253002338L
aL11065512495613657162L
aL6576385016793398544L
aL11224499599638091097L
aL14088559620114579795L
aL11941919099466015053L
aL413693435078099652L
aL13601041775828019909L
aL7567091936684616762L
aL7530001138169032469L
aL9741700266990606983L
aL1483026920090823618L
aL18161611994454005876L
aL5354754505408817484L
aL8348326467650257651L
aL4291977765937898539L
aL17061563992320304333L
aL8740916224997513318L
aL14798544228779057619L
aL8664182686805860759L
aL11662092134508580080L
aL6813418109671349463L
aL459599911318809247L
aL15088640612961425302L
aL17520307792434444420L
aL12463305979585967925L
aL15160202158250730046L
aL2526121382365633009L
aL4800249190826317330L
aL9633023119824364685L
aL1862785197902956852L
aL11591776924783429067L
aL9766982553078256309L
aL12509830597311122398L
aL2505805227591534938L
aL15319074837012228205L
aL9308259478473988172L
aL8488463001249379499L
aL8068182561638312189L
aL6626030665840655315L
aL16655537752769781078L
aL8656387836517937087L
aL7018683252348320145L
aL16316107962839941497L
aL16539247064395905712L
aL17372753825549634582L
aL13623023297070118604L
aL10154160984857966275L
aL2809333780254242624L
aL16696940835305575791L
aL16715017364779860775L
aL16806383108664966478L
aL18290329141511071071L
aL8204665158411309896L
aL9666015123725382241L
aL2234282079032731422L
aL11565674734748079714L
aL11954810031502128526L
aL13012877276528404445L
aL10211499955348510383L
aL18003802764857708021L
aL7240242013478821084L
aL880530967851167195L
aL6554193804389811872L
aL17884563444180946277L
aL13976314424787729154L
aL7920632249464687796L
aL6513944730272208597L
aL13724922829064723950L
aL5924774201495785190L
aL2814525057190676759L
aL8196835090457596411L
aL13602813740382226487L
aL14071948131178769144L
aL3849270311367013146L
aL13277614158094843519L
aL8377624297482859196L
aL1718636536345625053L
aL10010919831305727095L
aL5048503281363856365L
aL7855698453681085808L
aL16453824727304420908L
aL13575300132784689792L
aL4078066530117910349L
aL9336030780680742325L
aL788085215756348077L
aL676667836069611573L
aL16179594774282646040L
aL5443150985552790173L
aL5572954290408121133L
aL2326895652047440494L
aL3643645644459077696L
aL11549978535583158622L
aL6671110504783848640L
aL15884172039469156937L
aL14714530511184203704L
aL14809638024024101912L
aL4290833977847321607L
aL3918221425492073461L
aL2932664904938876926L
aL1473548824756476381L
aL8202333115146334471L
aL16989696137843117047L
aL15223015680963892840L
aL12723683861896070299L
aL2521582876883831203L
aL18350121248278751762L
aL11287070053614329499L
aL14570614382777556730L
aL15563676892985987069L
aL16544310281226957872L
aL939640456549347026L
aL6781104171933107156L
aL13839209726246167201L
aL12662590672938991626L
aL1868934766704086559L
aL3392403102748052215L
aL16106597394609708284L
aL4243012484885843727L
aL13430760808408471083L
aL5982315357201467298L
aL7556015137875813562L
aL6559298839949397565L
aL16636571310549038193L
aL10731681778288106L
aL12258177797182990266L
aL3689838901145768212L
aL18235656648334094317L
aL7376873997694021478L
aL10164511017448931668L
aL6064288798020293833L
aL6557217828213766501L
aL10563006976333705391L
aL16473110483166501221L
aL4075920802382541766L
aL5230454136220092676L
aL1243792953845557796L
aL2383351372451773648L
aL11626862632652459253L
aL1362920817768719728L
aL2663991684425997326L
aL5486194453708652547L
aL6224233915668746387L
aL7075767917171843103L
aL13212789641784593913L
aL16042760954136208826L
aL15026641254141410234L
aL11208633153452939737L
aL17862332482828513499L
aL12593291257455346170L
aL14075930609927190293L
aL4179051932627857314L
aL11535755684059229380L
aL9383784620575774543L
aL18059014219022067391L
aL4132953303923882809L
aL14533097735863639325L
aL11681109637891024682L
aL6993168238719349636L
aL4568079138134893057L
aL16064686687107196468L
aL17605060033880578386L
aL11648867053095402460L
aL372156073522041540L
aL14950544305400677929L
aL13251404673683022711L
aL2190127770243554545L
aL12245633440195986918L
aL13274342731414849548L
aL8716899445853462475L
aL2440722106383153457L
aL5660082175046464786L
aL6437527487816144488L
aL14542140300421134274L
aL8460276905633893117L
aL14600482986398457014L
aL3461982631247293307L
aL3165409063189091946L
aL5394846412829052176L
aL15481299465392317295L
aL13643768035523649945L
aL14949104055296552253L
aL13296323877940123590L
aL10822091525443463154L
aL15342660631482802829L
aL14298852780539554896L
aL13389159401515595765L
aL9592354278960578049L
aL7559874138187451714L
aL1401573462870314504L
aL5754053892769980089L
aL9042375807005556489L
aL12183706200825312672L
aL15282127008005921650L
aL7055842988997564344L
aL12110083221147196432L
aL13419818501119245529L
aL12224427531874458316L
aL5850436458204527785L
aL9929047665663033080L
aL12869131483092188561L
aL9105005084783893366L
aL11591847324097036585L
aL17894743825058930848L
aL4974888322433872276L
aL9698472684063870595L
aL10276250723440794301L
aL13682963612724586851L
aL6794736885591493143L
aL13666175797436792918L
aL1150563886892087221L
aL10774322290504991003L
aL14080750092914295089L
aL3157245637305229966L
aL14293902997944264547L
aL5532849346903483291L
aL13443159481530789446L
aL7592138411076791843L
aL14103609174824708360L
aL12353720510191528549L
aL17360287308215296514L
aL10510485172231548211L
aL4479202831015221747L
aL2198940152100821819L
aL3639953760321410461L
aL13777946740784639761L
aL9151885881607869602L
aL12664943622911876271L
aL12447195250311450839L
aL16627837915928478966L
aL9594696952519064464L
aL10080134460204242753L
aL8940246202114564274L
aL18188188384196101738L
aL313075882272979312L
aL16213297062697591828L
aL1198761841021729157L
aL11215378260663381160L
aL16290499175436018786L
aL15695640448702934558L
aL11365735065896505918L
aL348975466124400771L
aL6505510388338985275L
aL17688427078143848034L
aL13580319122383791169L
aL14171789775342762058L
aL14568335854415130844L
aL9878394480160460207L
aL17996956647471298223L
aL14009482768009104119L
aL15553892501888247829L
aL11338186262341016549L
aL14004355353611775946L
aL14802488118074813159L
aL7919651773677847347L
aL5435220749245913517L
aL15403610088341472151L
aL15722031254072089412L
aL6983388871907618773L
aL12525790546313382033L
aL361418303356205647L
aL14451569979368695038L
aL9675436427020572750L
aL891999849865429436L
aL8491058328164926156L
aL14177695081373200723L
aL10287713130469981466L
aL13601127053982964194L
aL13580130277377422049L
aL16691696651488342673L
aL4180934713051690959L
aL8645962787406459904L
aL9489308999118086072L
aL10729125072835872766L
aL17142958336318285571L
aL17010664992727411557L
aL8632023327958077753L
aL14644550586829443111L
aL3073811226131621201L
aL18446509919232503846L
aL18108060022480389411L
aL6906436674897964483L
aL15094457921529317908L
aL11821199384486640262L
aL10366033995643250995L
aL14257071337709673829L
aL10668026184175905179L
aL2948919730616686885L
aL3721597078197340059L
aL2692587457408451472L
a.