(lp0
L7337002674677156106L
aL13308310054267162399L
aL9983645929999271833L
aL7479684371642905861L
aL8877774390953172158L
aL17056078353974165804L
aL9332897617787870082L
aL12077252832064795074L
aL13348303102400658889L
aL1173184084928562151L
aL2685638605809247083L
aL55047074918722891L
aL9386374904987203647L
aL5659781246280619289L
aL6693882538778577065L
aL7167210276555785414L
aL17229814583306127924L
aL8163463425232504036L
aL6659293844759741403L
aL10569640825299931610L
aL9141219532995290316L
aL9306830307716636260L
aL2706832916924655274L
aL9499072388246934745L
aL17477859952871829223L
aL16348306988583172508L
aL10644636944266619204L
aL1245259839868951042L
aL4083977356964265374L
aL4719235890720014027L
aL10379550565236893425L
aL8362028012794022626L
aL9159859278922343197L
aL9799444291272754973L
aL16861075596797459387L
aL1686473688869276099L
aL2975251396953176005L
aL14438088470608906068L
aL10762593869918713897L
aL11435057144225356947L
aL7000661071190501504L
aL11783044425665041938L
aL701031747597405318L
aL10348989500534674760L
aL3481935927009055792L
aL8298594493129284279L
aL14988940897883238289L
aL658410981815750975L
aL5475155480415545991L
aL3303758410426876258L
aL8953543213958526745L
aL9364939981787495526L
aL13180863949257891718L
aL3980863662885390036L
aL7116678313207617689L
aL7623799958920320521L
aL2217365917780165046L
aL214532700869858726L
aL1533339971105839849L
aL16314176700416928800L
aL8773835492579121041L
aL13104498797594412639L
aL12606786857382563729L
aL9416242160730031295L
aL8230855979129963976L
aL5443897174682824581L
aL7979137864660578978L
aL462307529382402732L
aL2747723933056498272L
aL16516654652753788603L
aL13502984686626502038L
aL13064778971988827466L
aL3895317999380457636L
aL18002671219047504976L
aL14096958705967203076L
aL5870667317302512481L
aL16571419851297050446L
aL7201701646557552691L
aL4843136142366248709L
aL14547102678059304920L
aL11325087040485255040L
aL8032804084266699512L
aL18240605372367383173L
aL14375339464079113934L
aL739458749938714923L
aL11295088930781014528L
aL5249671928414832991L
aL715759396799856008L
aL14303252219475157099L
aL707663565801435314L
aL2190419533489589328L
aL17593335075883270454L
aL1475523886475430899L
aL7276625968566853810L
aL14913864127822749969L
aL5851586064278023549L
aL5124843053363832974L
aL10521705648728071825L
aL9031227185458607881L
aL7294669995554345743L
aL1632541392640906118L
aL11232590224659739582L
aL8356447678776800904L
aL2623947096464076530L
aL11706394716947776266L
aL3043507470413441861L
aL6075284729605675084L
aL1689045359239271624L
aL16428177734395765019L
aL380069200404096415L
aL11501868047900924474L
aL10132343601021352965L
aL9284156774351423047L
aL4126577057751165232L
aL5268008692560921581L
aL1086377676611853801L
aL12930704460890141564L
aL10075198251780729229L
aL11740125793277326117L
aL14419175428793681816L
aL4993940671226562661L
aL7013969961341519692L
aL17931327374382258415L
aL4694540856582708995L
aL11735267561686506932L
aL18281724820467013231L
aL6488779159354537335L
aL17000649532288888051L
aL10786757542402654199L
aL7775034125505533524L
aL1336587106944084664L
aL10773288837277395543L
aL11693855932275080254L
aL12448068981932444676L
aL12803365206977583914L
aL1796230904082813577L
aL6441192685033003490L
aL16609930174450346093L
aL13291549972666082237L
aL1855231953861424002L
aL3408888286429882418L
aL3143249446175320785L
aL12614754563736553822L
aL12847328303975430869L
aL2753045467120468652L
aL5526273312749174637L
aL12341850635050702984L
aL5668345080302859616L
aL17790680142897792963L
aL12033421522028536085L
aL12890290969989055661L
aL13089712286202360176L
aL14591694020930905934L
aL2106172420203459677L
aL4920799085936521935L
aL18006251892847643335L
aL1098604538388294568L
aL10351125603145883017L
aL15436705052351906506L
aL16550447870086963507L
aL16432017946028035522L
aL7499489437725236347L
aL17484853113629085220L
aL10587313140433964592L
aL10974888092351798078L
aL16880705083534532262L
aL13761425974825529500L
aL16812906770846731349L
aL11565610005296214732L
aL13001202171889865043L
aL4600546154287193843L
aL5884789184064688027L
aL8348955406726314150L
aL1263341245997913737L
aL13901284279687994815L
aL627283055738920329L
aL6881236846393874848L
aL4493121501445537058L
aL12158836240556318009L
aL18236135260844333197L
aL8359825923187026647L
aL8056235763748668045L
aL6146737214463225681L
aL17403648286866163237L
aL4635100313376044996L
aL12501123503271868239L
aL17097605713823888673L
aL10514912328811120843L
aL964719095918340403L
aL16747850897757906307L
aL11157947369589777935L
aL11019914796443632882L
aL9240501933456541623L
aL8578577103903555633L
aL7507140738157146911L
aL6382964060202992542L
aL15872363009407517089L
aL17877960591812802037L
aL9414717588000365507L
aL9529124914361566750L
aL201800245978862910L
aL17737102467493017697L
aL11824069355775362938L
aL9420482006181489461L
aL10103296469628567898L
aL4226289020263010427L
aL4408907029017087858L
aL9645941939671464342L
aL15732043809283825986L
aL11181323254392929693L
aL7577888054104043177L
aL542041215944107419L
aL2076946412066874185L
aL8444152512240062507L
aL17289056282231225889L
aL6495329092956835852L
aL4739733157266564433L
aL9268133878773020705L
aL4195845504659093476L
aL7667956089230145379L
aL5524970512347800741L
aL11657212970482180090L
aL4276052866519671821L
aL16989141584737162739L
aL10944507198778076002L
aL6218755994391185179L
aL12420190993558339978L
aL13535633256986378963L
aL10236129467925297811L
aL16114942095793522716L
aL1756893074606052705L
aL2841346487009891684L
aL5819114716557828235L
aL4674635081503667817L
aL3285826285632071940L
aL15590579752327378337L
aL17188954404621928410L
aL10199830587677020883L
aL620101012932522640L
aL5234506346966289621L
aL16335953406877817125L
aL12936456492205114792L
aL8443396647739421714L
aL9088319887674252259L
aL7759304380101363598L
aL10229202395014836398L
aL13200508790190955478L
aL7444473442809111444L
aL12042869155466176308L
aL7865598773296702356L
aL13179750552288126055L
aL2552588279811564202L
aL10738607767512619467L
aL13390543365799515287L
aL17379086100592361901L
aL14846830009337562757L
aL9346136929940305495L
aL11975130440399234185L
aL14955973169251383653L
aL15541868540436416738L
aL6003972631942082302L
aL7778039205743282669L
aL12585976308711878135L
aL10537510036987807914L
aL17096185431481514095L
aL9028417217575475945L
aL350347429520479998L
aL7314939636918467265L
aL175150059124170735L
aL158333618996116476L
aL5973967568979343498L
aL5564775696457126212L
aL7074754244114990421L
aL10907936085992049814L
aL13844313945000954515L
aL10429288693292150483L
aL9880401806850444034L
aL13918804071872264820L
aL1929685590239939198L
aL3950767055164352177L
aL2314033942501898658L
aL7343868200796796829L
aL11096985247101526995L
aL17122967567105193108L
aL10500932511264005218L
aL10283034500953194410L
aL17359151804406524390L
aL8090758942512133545L
aL14717478287264230444L
aL12855059654137956020L
aL6551893631390450763L
aL1766100205411579227L
aL6101812904851631753L
aL7576346971060575744L
aL5515909805769204505L
aL14371047890314682988L
aL7397059182833075352L
aL4645201678517606502L
aL15689713260848922080L
aL6018213560059261661L
aL3652744063896297211L
aL4487941931304067904L
aL11502032033739666677L
aL5958018813810336563L
aL9838030922769922443L
aL3296263916146953548L
aL12998387629820121462L
aL7500273277372513044L
aL9083520363418508967L
aL16587484997738333671L
aL12158131804159680156L
aL6529778735720962288L
aL6191640140531701160L
aL182011110164683572L
aL5677214948829960432L
aL12218057730637305273L
aL7660512599151008577L
aL6056191491406030815L
aL9306230004792405279L
aL3307848681034294155L
aL15151551945022481094L
aL1150893051501765553L
aL2221607515021285811L
aL16092247651440724904L
aL14535235991025633470L
aL6658394685643649504L
aL7800527984925248922L
aL17929787519592577177L
aL9581299248090158931L
aL17911812937069871928L
aL13380595585248241384L
aL7848428584374635071L
aL12846089294903493864L
aL1932168846204629941L
aL3769685241116192408L
aL4603668800471327491L
aL7804849523268887781L
aL14127420663885574488L
aL10119928859468544139L
aL5304642678742249029L
aL18283948744613227321L
aL6419940851750106402L
aL7098532680058309672L
aL6416849910851574528L
aL2248224137526891370L
aL6663401688891487551L
aL12824175440235120235L
aL18347440556310777833L
aL1402694247159594890L
aL16046106928396259002L
aL7203359333613757396L
aL14531265087745896383L
aL12042231230839188434L
aL11853991892236785483L
aL11529110038751727982L
aL7344273974929263546L
aL15351788212803234279L
aL2359772989932696665L
aL16035386098834046064L
aL7528065248188663684L
aL10930055194467372167L
aL8968807681406101110L
aL15238216651078485229L
aL15027870212163956237L
aL15697317455457398699L
aL2554470819051817245L
aL3808459665917620142L
aL459227207509087893L
aL13815597120794008601L
aL16131981555907154759L
aL8043180330381491034L
aL7893199333728783050L
aL15683772434521021260L
aL130391305984262156L
aL12022016602663314591L
aL11203826552664512256L
aL8268203797980536914L
aL12981304613126403124L
aL6072139231506475002L
aL8938403522961484539L
aL8876501116258769116L
aL8971815249386132238L
aL4179514199827142076L
aL3007553051485083731L
aL3624715339375089013L
aL11523104760794516925L
aL15066812009888610L
aL18115523279154242677L
aL8760809397706737953L
aL2954030882909235231L
aL17442409370046494779L
aL16610401491501780689L
aL6761464609971214558L
aL4853059531862122184L
aL9744482532259127434L
aL12425529141870295888L
aL3099141560185378779L
aL17707038189190065417L
aL3547759524738344438L
aL16962567877845836135L
aL8908753784901121404L
aL757858025703367887L
aL4902803659539167138L
aL13720366559460563125L
aL4116388217597167125L
aL13135009694261939271L
aL6620053959674976753L
aL8124649827948073927L
aL11811554301898138179L
aL7540927194510467518L
aL10580622743746490863L
aL3006815694223643226L
aL12329464803864676132L
aL3715836188597960181L
aL12088986998816482760L
aL7138383288762437918L
aL13534589759797735063L
aL4337576265590438538L
aL7003351030529689607L
aL17976283389760854018L
aL5872303840777768686L
aL10676506348250242038L
aL7869338844189336633L
aL12578978706346923392L
aL8878980454755403369L
aL14360770720220857716L
aL17799839309097344361L
aL12430093498841528623L
aL8229798955677117932L
aL6167247260907534040L
aL12200031679528179393L
aL14318975365989691414L
aL17965712651294693850L
aL7417686541175075297L
aL1633806015328388464L
aL2069084033877462834L
aL2845163728876491625L
aL311679616396828157L
aL6308470445098451210L
aL2440368847461709584L
aL18059893876467969308L
aL16348200662182535176L
aL17065826346185582075L
aL945759194368512160L
aL18287022200152633273L
aL3159024525237725226L
aL3351367808906217667L
aL448880019041546847L
aL10548757204850458217L
aL7371238385092174991L
aL14584918100812756784L
aL8029565240679418389L
aL11574107436131822681L
aL13609114764208636517L
aL2129708291526052249L
aL716675891784250979L
aL7704746269118523101L
aL13526247147060076608L
aL1849190630632956223L
aL565737624104706319L
aL8435775894972866520L
aL12976912047735618240L
aL17561206607056071625L
aL16252649552862665405L
aL7167847778571254480L
aL3530933408360261504L
aL17390147588004839156L
aL13207285739879166500L
aL2983243632833402757L
aL13148642212566385647L
aL4185360671558240933L
aL2714517348712519431L
aL6065447852878426903L
aL10842869800647196667L
aL7255887704858076380L
aL7420130603699869771L
aL7743931987832729421L
aL18225029891065886063L
aL16667789051642668125L
aL17058143118540318855L
aL9453745695663205448L
aL14087464086303791938L
aL14731759410288668926L
aL9803919583155436636L
aL7363264758000938092L
aL14505571976449454305L
aL13600995222051120406L
aL11208611104232059655L
aL3270655335996571357L
aL6550166152666453739L
aL7128809985076104861L
aL13618873549750150502L
aL15134022604424088870L
aL13570416133027762200L
aL8925061745048485684L
aL5881200411307732515L
aL14713279696609224630L
aL2612513138053833564L
aL17274272360036561449L
aL8043700385558082434L
aL12350282592059551388L
aL16803731209680974835L
aL10467858707705081874L
aL8987276522484120993L
aL3616413308798169476L
aL17498284587406699434L
aL417834166940408820L
aL578456758700627837L
aL15913149912713068124L
aL4367759478166204095L
aL12590788227098829608L
aL17572961897095856688L
aL4743653868712827062L
aL10061003811619928426L
aL142595427102492204L
aL9585418143942241142L
aL10065561995683172056L
aL17238123907905925739L
aL17893154006083512058L
aL14464878785768609949L
aL7219000452172995628L
aL1874887726227411196L
aL14520232870294199039L
aL7432289651394848942L
aL13895858879445587130L
aL6642964277570885340L
aL13627108539311316842L
aL12136739118470398831L
aL3650648001297865402L
aL15699874626802315355L
aL11692330445282165403L
aL17253960207722051348L
aL13456045259550115719L
aL3315041766993847379L
aL531471998436036942L
aL5753263833581694558L
aL755570020277808122L
aL3099971862072983472L
aL306369178640058750L
aL16814648332800226997L
aL12637915953285357197L
aL1375933224239327094L
aL14445352590341205122L
aL259713253854840075L
aL4630836962914973747L
aL11325994470860649460L
aL17181187649227269220L
aL3179698056375454500L
aL899272520324419838L
aL31592094434299768L
aL4459610346760038994L
aL8723639103126548280L
aL2656919017159364397L
aL16560355279964654953L
aL1532856439166281117L
aL14131042442568296083L
aL17620132025858451735L
aL10379546037792990172L
aL5302883577643076403L
aL9052358467799438950L
aL6269404686708301265L
aL9467936713769151745L
aL2910110955691682053L
aL17854233645281674737L
aL411872635692886682L
aL4305667100668424585L
aL13347485948225248228L
aL9663330884549434362L
aL12775952825358396320L
aL5583873668080942173L
aL12731908548110382541L
aL5118928667043324060L
aL3756368995451320966L
aL17048280283175294831L
aL8513582776643995947L
aL8921651226427845424L
aL2416207073300001677L
aL1480129842060352266L
aL3687169533484487797L
aL2193078675811149751L
aL7681987125094647853L
aL13445243618011121169L
aL17728243271728024694L
aL189655603359567755L
aL7644261137272248923L
aL3661562836556208229L
aL5914840074304703157L
aL7539720565866704650L
aL13947775473803219143L
aL17842769563456877366L
aL9338978212727326245L
aL13533991955891930859L
aL4234976760235347435L
aL8677879498768177465L
aL12365225231002998684L
aL15753857624021779016L
aL5812960660068584096L
aL3427241391198243132L
aL14389326449278353124L
aL6609897173066772543L
aL16892565290899419771L
aL2659431443844705524L
aL3917072437578526509L
aL4714808130183498829L
aL8553279632487486417L
aL17452862844575027806L
aL12947835263560453803L
aL2104562490683490363L
aL8017518625323627643L
aL13426358342524027064L
aL2356838574964879524L
aL1356437476100485893L
aL8559773294740420044L
aL18173047679672349767L
aL3854491091586828513L
aL4949180065738327923L
aL4483161758048573238L
aL822301566578241623L
aL16624682444244314753L
aL4091801620011094291L
aL13804142068943174443L
aL1430847010387558449L
aL14431440022271667960L
aL3004590922187297543L
aL4383516628758560103L
aL7238946801729224615L
aL14140639643001785921L
aL1260975264210027885L
aL14161231245582417569L
aL12134210159395618091L
aL9625479054834881734L
aL9654549383008578809L
aL14584998178002984253L
aL5521187061751899905L
aL13441281288729204845L
aL8452846102390067839L
aL7496764883415962985L
aL17525502008861668327L
aL12703156918890689233L
aL10788796155625440588L
aL17172954357233926805L
aL17319050484224529564L
aL16030716032758193446L
aL7491455911408178738L
aL11092472216798307282L
aL2581978502927873815L
aL18333854153568007162L
aL14026652547319678547L
aL1396122696983081072L
aL2000184913734854507L
aL8937885666223963686L
aL678646184084239356L
aL77487691636655616L
aL15101977489840565968L
aL14096337526384443529L
aL8525136103427053871L
aL4714006195720737938L
aL16141408686780823946L
aL232210385675696367L
aL8448806947462324934L
aL2195349852968757769L
aL9895908771631608421L
aL9508474729675628283L
aL973834110353724478L
aL9162239018128045744L
aL14380051353211918584L
aL6522882490314726489L
aL9511694336817697247L
aL12785445734325518188L
aL6641460953038065885L
aL10007211754192689379L
aL9863622359699890010L
aL16504274203433751317L
aL7658515208583587387L
aL9197529677429085237L
aL3977981475086974446L
aL1746844536572653045L
aL1325378044462850640L
aL3363860928657249903L
aL1328887740133962134L
aL9543932185993993496L
aL15710827056974323731L
aL11710126731444209789L
aL15964002258127974811L
aL7360903066487916963L
aL10281678292319621957L
aL5511430312388339788L
aL4516998675214443352L
aL14912182128374717407L
aL4357945679212473678L
aL6540406556087828130L
aL11290336794102019168L
aL12787682779101612631L
aL1806398078524454834L
aL8465590352232903823L
aL10638699142536320621L
aL15354568681662117843L
aL6066284059171434997L
aL485019782908349494L
aL2397570382904609626L
aL13539287878433958952L
aL465083999298463394L
aL11061808042657594936L
aL8115045146314213641L
aL13009522768913962920L
aL14429092254192986285L
aL1906484368857346447L
aL12953579081284277051L
aL5320847472326573483L
aL553084058709834241L
aL7742892297138408214L
aL15129678588309511930L
aL8490412844509942951L
aL1387965358887300359L
aL1292387946524454842L
aL2806340219591151509L
aL5766731837592286951L
aL1227016375132173289L
aL13077774183996970990L
aL10113084500426234671L
aL4000079966178356984L
aL14081556609490982571L
aL8104320764700609762L
aL14014188681284462871L
aL3428402330951069258L
aL8086991075527045677L
aL10121373619742381042L
aL8361089703351676197L
aL11798984969071406433L
aL11287419710612717523L
aL3418540447799093527L
aL4972346055770960279L
aL8134893697930759844L
aL13790044292815670663L
aL14145338089731972210L
aL15581839796626351079L
aL14025690661377576857L
aL8462847011491681614L
aL13090614652370701L
aL927909614393862047L
aL4321319472949243444L
aL4193713490312052297L
aL3010861080657335339L
aL6017282714889629437L
aL10873269386934012282L
aL7302543433394532988L
aL452415796513073512L
aL5260018312640341655L
aL15810512289652314441L
aL12735988687531349626L
aL8430140433633575562L
aL9516413798545904020L
aL1345165722896655768L
aL8822220082026461856L
aL9538658877048017087L
aL6176699538978137330L
aL13077825391651266817L
aL4025546540960820324L
aL16511855002502008323L
aL8212432416049725014L
aL10692181158223996510L
aL11340082488826137007L
aL10904067289538017974L
aL15955403203499430923L
aL3984731983759977574L
aL14044602687059061898L
aL12739988822875381110L
aL10482535504020011804L
aL9012523350406381458L
aL15586267714343911559L
aL16903235282412594164L
aL7954199496215588354L
aL2120751117137558137L
aL10852048832565248172L
aL13397638987331954865L
aL380174701078085744L
aL14864084365699753981L
aL17320035513059306407L
aL2606579847158109348L
aL5268718012159879408L
aL2682749370887101671L
aL10241127571628439937L
aL10415819103137922379L
aL13160704243457982571L
aL1950440595873623137L
aL11043442646851815939L
aL14432759729589274870L
aL7187796342460417837L
aL14258160641798072992L
aL7939363908688037651L
aL15956365461162643794L
aL87830790644569063L
aL919519947281878746L
aL738588914693515795L
aL11491992823883736149L
aL16179883292316687429L
aL2948110153320083658L
aL8332353229173071146L
aL5813777679987536241L
aL2113091936822731495L
aL9158313345438179764L
aL959712255224395582L
aL5629128603498203877L
aL77943624126722294L
aL2803571245248941837L
aL12948162622586400759L
aL17923083561158378344L
aL15757235460830296788L
aL9718157766266057300L
aL14894987814976565711L
aL6526768717320221585L
aL3703470804847996928L
aL12405651998180103220L
aL2248920894071085955L
aL6196641300051193871L
aL11489824448186266135L
aL13771817924281234044L
aL17054524189414411187L
aL17501741341252935679L
aL1077509103224310383L
aL4294877245780243544L
aL16740477070109970863L
aL8018342798049292869L
aL11193101616893841673L
aL4572323885173288105L
aL14728390957172816647L
aL6653327617356083119L
aL3369659122594176459L
aL5023847485335274312L
aL14100257331704673917L
aL6729877071600411985L
aL7538911533359004261L
aL6638565873576466543L
aL8891153225408968406L
aL5188223201898204709L
aL8476869986599731291L
aL5810629159251782389L
aL13780583633990923833L
aL7247376743498925742L
aL6281931169835784220L
aL6657274718863438695L
aL9484055374073607281L
aL15412500319544190247L
aL15588308753385813894L
aL7824433602640478973L
aL12117946619639614934L
aL17364961963712267201L
aL4999985629670276645L
aL14625575726479751410L
aL16425717312396686666L
aL7135154051894633208L
aL2384575727414494439L
aL18213951906571436419L
aL16821169840549619620L
aL3263344899307832128L
aL9488353214767274289L
aL1011696555555500131L
aL17155629386679789900L
aL4090119093386774810L
aL13777203593043640022L
aL2129819884387999298L
aL14783319238040858781L
aL4634732881967556419L
aL17371960040465680253L
aL7456050732522029033L
aL13385798584092322228L
aL4345885887802559912L
aL11424331941212162917L
aL1210173392793210528L
aL43620647091479082L
aL2922281318531792958L
aL8909585288678557141L
aL3562866314916888923L
aL12826990369668047964L
aL15710382686599483120L
aL6247454163822848681L
aL7043799390713798824L
aL386306658532548115L
aL17090005124103515964L
aL4814612558929131926L
aL9057672305690805393L
aL263230372774131544L
aL2683270342846417977L
aL10254295785785669722L
aL11781071548067661307L
aL2090873551908698718L
aL7007699899868466399L
aL9157698195206798634L
aL8149023638161765797L
aL10663714874985832445L
aL4496607262051686062L
aL2812181991123400300L
aL10364042090607651293L
aL11471506010108274698L
aL15263040914922236405L
aL6981359027865488916L
aL8290504343195799969L
aL15123328357054638938L
aL6476100126375165008L
aL5422403954795408635L
aL17706671474111489001L
aL17619603213737776016L
aL13014250456749290120L
aL2299017663370102582L
aL6211577113088252827L
aL6346955609352558555L
aL3984369992267642399L
aL13758127064482073547L
aL13024673918023702135L
aL580900565678804716L
aL12510135927051024220L
aL14144034650682035452L
aL17735169802986923209L
aL17287873528162208226L
aL14333913820290740467L
aL4710443476176281590L
aL10346852223387832140L
aL10068725065159634862L
aL7403293831423337205L
aL5668987391816192855L
aL9351665471029048261L
aL10154552030428452773L
aL3209321407947777891L
aL14501869785168645005L
aL16127977804597513383L
aL13773332318563219834L
aL10530140152842305546L
aL17362706515054619978L
aL498508817744050472L
aL3768806758224402505L
aL15117771857583462742L
aL10791636032489319567L
aL1179295534234317837L
aL2105612536303029516L
aL6894978691747354642L
aL4367539695987311181L
aL14486596073097251447L
aL13743326324316362424L
aL14689393492479120495L
aL15249783842562199301L
aL11021641332417911716L
aL4028366495320113670L
aL7460292827140186094L
aL5706818417514231941L
aL10672440192638352949L
aL3190717464118897804L
aL11020343345308078410L
aL2821150560072799383L
aL18013094743845599581L
aL302634899004426054L
aL14568702248506369980L
aL6321875829238327124L
aL12465168412485292978L
aL13744405652013082593L
aL5818607304433215464L
aL17924649503738839528L
aL11048225404793825235L
aL1485132306568569922L
aL17558703760756227581L
aL16858319262642495649L
aL2503744266742932169L
aL6806808356818071744L
aL16935267063741701427L
aL7398410464646386781L
aL17648226224131715990L
aL13072221842158844568L
aL12181729647096620867L
aL2399925592862895694L
aL17805795637467405518L
aL1813684637554110434L
aL3127429734325540387L
aL2692452357549905741L
aL12307451207563514379L
aL11342693225964390154L
aL6176617321734554426L
aL2695680094528000020L
aL4735752310997804965L
aL6696448519252168753L
aL11997993706177969374L
aL10653222226968017693L
aL15551853734487032942L
aL4934995286039812070L
aL13272554505138807752L
aL17286524972350863037L
aL16253795618573854347L
aL5029139789194169530L
aL80728687854260081L
aL2649474533281175866L
aL1619085322811286549L
aL3780417932103180076L
aL13468669036774105330L
aL2021426864919925162L
aL15569814803991925548L
aL18201800769313132768L
aL13121731588337261311L
aL7229936800905924836L
aL12841585641420215619L
aL17816781091458819084L
aL8989522351094514246L
aL5900472512183787740L
aL3972890063583323171L
aL2844771233520837975L
aL12402191236684213052L
aL1313658898135087127L
aL6762570934418750250L
aL16842358503860455539L
aL13062661803803595724L
aL14183871261084128888L
aL5630856533345871102L
aL5455333411990597189L
aL12374514403685940091L
aL11786409838789051245L
aL12976431564472619085L
aL6029452635311232689L
aL11082120308125701342L
aL16978681459954890523L
aL14548658178998113474L
aL15322681538941638368L
aL14384441743638338655L
aL6196938765292269801L
aL3850246573689528049L
aL5653732117462193552L
aL1455572799913386704L
aL2710723137675428808L
aL9432096250021814615L
aL13256209812669082451L
aL5369143194407919292L
aL14317186382039125981L
aL16816783353881545373L
aL17334123368098768885L
aL2136463760903530417L
aL15807172456229321098L
aL10772782460675959806L
aL18058175826974409612L
aL8888941643544303843L
aL2138904600111298880L
aL14585310315476350793L
aL4152228035269858181L
aL5963915689128781848L
aL2216236730531946687L
aL8698723889025988324L
aL15694929627843438445L
aL13967461125988265280L
aL15953280643011456425L
aL4084199422705798982L
aL11488338082096281259L
aL16326044673380464872L
aL10625697632392447571L
aL1021454711507378193L
aL7222181773078140400L
aL16254753019855891802L
aL11850664181814032907L
aL17800010458275573401L
aL14658216012432948369L
aL9485909664174476136L
aL12605524962327987007L
aL2099515666736370528L
aL8938926120527244759L
aL8752768252110238763L
aL18334772234273851507L
aL4624923978331190532L
aL1914165039771858295L
aL16629917993490378183L
aL18294148533325289795L
aL1077395114920312954L
aL983851261746347477L
aL2301549128133760103L
aL5298831066926350544L
aL15705803456192231846L
aL17002810295208767188L
aL17896741712630191236L
aL11960921801776838766L
aL4826495394610019388L
aL13640509695986822970L
aL1104501276978440618L
aL3027446140560434696L
aL14480428071920700806L
aL2729473947644402360L
aL10968448983374587469L
aL9248406087304228224L
aL16868405699980019775L
aL2948622444431073779L
aL9574876177114729610L
aL431556115115792225L
aL16927503364755544724L
aL13282829736587163562L
aL14114462578175853498L
aL1140524498822727456L
aL10318017576095504497L
aL5221832160047611081L
aL15052413047123393788L
aL2999519964571880041L
aL16937619420679408088L
aL16340529842404780423L
aL1039307011080717040L
aL7771547233961906851L
aL15365875131665571004L
aL5481937237827085780L
aL9993672516411949788L
aL15826124732721626664L
aL8180815239997285977L
aL6601412213107202978L
aL6757450530437369088L
aL12362758314651412535L
aL14268093265472270303L
aL7576956541538976410L
aL12766416539151316915L
aL14893093655901952617L
aL6123078112123802317L
aL2778454467413879946L
aL3717188052510832093L
aL13784730325062787463L
aL13215258766114703422L
aL7027539143641599359L
aL130650857487544485L
aL7113014915257041037L
aL11901850956696828910L
aL16634430076697751992L
aL9175927501384841701L
aL12142469100166940468L
aL13982028046831910450L
aL10848313596908996335L
aL736530750438059163L
aL182002811439798525L
aL14871437948984678233L
aL2875099696994367375L
aL5525087723527698862L
aL16471002660181154651L
aL829355900119231003L
aL13443107012616428953L
aL17598846081112016491L
aL14729636033891565461L
aL10032041679825463348L
aL6137717953458739940L
aL18012613347228885974L
aL10527412205082645429L
aL5366968808340765279L
aL9352602904607565114L
aL2250647828215425217L
aL14610423871507085027L
aL10915190502920033025L
aL17236751844466963700L
aL15464818262812119509L
aL2083059888300585945L
aL6800008213867711980L
aL8223279218644959761L
aL5371500744444520766L
aL14183772061843971351L
aL16784534968073861866L
aL749034372673460464L
aL3665749883280081925L
aL940712774370416067L
aL16609182025360162145L
aL15163656059525941105L
aL6252442204715906647L
aL14324382896860252052L
aL10865917648365253756L
aL12822062982757036829L
aL42658305278386083L
aL8521683644199871313L
aL7559697260576140248L
aL7588084870750673390L
aL4399245004954829255L
aL13344288052019824790L
aL16877847857192790984L
aL16550405815031321844L
aL4270123927099982692L
aL13600200264304549132L
aL5472069454581808725L
aL10142244684968098203L
aL16823414521693317446L
aL9649461294196441032L
aL610675374847029791L
aL285180509224679730L
aL11779110428432127247L
aL17486864255168975276L
aL5324871067228681678L
aL6492967774685681484L
aL13852267919936734658L
aL11791039990874101155L
aL7102193261375571331L
aL3541937165561238097L
aL4468004128537817769L
aL6018512184848699511L
aL4710519862734435817L
aL6315239243508417198L
aL14270383176630225661L
aL14233139509021644144L
aL17093529847163196713L
aL8366698370477741735L
aL8392518360144922217L
aL4460359622591955664L
aL6958768868525898061L
aL12242363095214095965L
aL17547424913869954154L
aL8714642919268395709L
aL15417994799904239690L
aL1159486541397691604L
aL8647914828896833303L
aL15471645246813764323L
aL11192973097721519725L
aL17294698506688615284L
aL4076792125703730013L
aL8393960643035147128L
aL11108919506120566925L
aL16464114497666133937L
aL7848819854084471102L
aL874138517180575776L
aL1774804541040248679L
aL8169788918497447750L
aL17337642019320449378L
aL5120136913745988677L
aL124062078091234491L
aL12934999968205480773L
aL717682880139347723L
aL15027880157032439086L
aL11905127851721234065L
aL1495628078378040731L
aL8644638024150109503L
aL12502276023912190186L
aL829276430556840868L
aL14183861928563310712L
aL9086384445230924446L
aL14175995697190845568L
aL8154426842599563099L
aL255785217968253591L
aL660219111957234877L
aL12226227204887485482L
aL1783916167670646942L
aL18198181758600775118L
aL15067447995960942694L
aL13195555230869616780L
aL12843869445297717608L
aL44566875531391051L
aL3738253340687416864L
aL9596213302919976517L
aL6346507991098166726L
aL14526013565026323989L
aL8349475532979802305L
aL11866525339056972095L
aL15542237518908321770L
aL13499361810948841565L
aL17353600056288972022L
aL9808677870564388496L
aL9223103078507527310L
aL2898494377562179043L
aL4685786618144351712L
aL7733977053038086411L
aL1201823123265457529L
aL7170460343550683195L
aL11728088363845526930L
aL5972449612308942856L
aL12487998097136845986L
aL7094804588476222494L
aL4776353244259644961L
aL9531790600665065919L
aL14134568180292171377L
aL16018993792766305311L
aL18412600609548089003L
aL14671759448311024815L
aL5439036867280383274L
aL11751036267827701330L
aL3225088433106107156L
aL18372769285854584551L
aL8742208317840494700L
aL8457210984020210955L
aL10518425710547530145L
aL1784313091113689898L
aL17445153521428203041L
aL15619267764591503160L
aL15069407257234313305L
aL12900925495803973345L
aL15364939234098350968L
aL1301068611728480838L
aL4488419212885869295L
aL2811120266760008491L
aL2853960709146839055L
aL17393101403620568837L
aL16141152027772687614L
aL11653765947941776274L
aL8479185775172664914L
aL1957136606977451612L
aL8172181731077875965L
aL8728102752956090632L
aL18051788789559448032L
aL4608718324879206510L
aL5191940171882719149L
aL1192577547813310451L
aL717764068230544631L
aL15618942837987628313L
aL2831241771913961364L
aL13854907528717792686L
aL4398255032671688666L
aL4897693318647484614L
aL12384862620278252288L
aL10137911679265324296L
aL9456029941527658002L
aL11374765418844572578L
aL3405270618999952590L
aL10532440253458959493L
aL10152575853716348649L
aL2427260180062081319L
aL7895267010722017204L
aL7602699069703222399L
aL10541886219216238507L
aL7004238126081517513L
aL2582801837523893077L
aL9398901868751853008L
aL13265789178988317020L
aL14415313233479205998L
aL1608069619999205791L
aL15110583914257156749L
aL16318863039667518386L
aL15946426606883852515L
aL2426910078612904227L
aL2918437097747145809L
aL3021249272867565020L
aL8755933067275518887L
aL1114400956979131728L
aL16917717207727557403L
aL5608312220847972017L
aL4805442786267784839L
aL17994383126976837179L
aL13252897491835913762L
aL12189064767966449302L
aL16250752778268922020L
aL874056025232011122L
aL16730201676520680113L
aL11618932506961679345L
aL14005167510979658929L
aL9297394441484917485L
aL16067999731523821265L
aL9641138377262440892L
aL3662950963053264860L
aL14618661738377520081L
aL16615181421228995001L
aL8714407871769157576L
aL16742361118094130845L
aL6353883601826062069L
aL11801932192303627165L
aL6292387957926474666L
aL4275291653954156661L
aL17167750573952721178L
aL16632088651568900040L
aL10204487040273958675L
aL18356571240323426369L
aL7109993941161573739L
aL11566560559454692701L
aL15642628981522306120L
aL11361058887718413409L
aL7938622960771505047L
aL11634856989975288220L
aL8922860464057226234L
aL6221077790938987910L
aL3386919315030981621L
aL4226293831121638270L
aL2759503670377228464L
aL14175946989082256671L
aL15863222693876317777L
aL3334585136765053357L
aL2759725602383757144L
aL15859506411349327440L
aL4376324822625449795L
aL12690337789177237652L
aL4056778014408165688L
aL10482486507314404991L
aL5024597066081602453L
aL18001708377735058310L
aL17622563203160120519L
aL11690434110259187616L
aL9004140174748182555L
aL9283036892115329383L
aL3851144413499801419L
aL12329207256386490856L
aL11719728839362983413L
aL5994233751734187747L
aL16241172297660484233L
aL6960739701430141227L
aL2587076010293480676L
aL15626874893414247099L
aL16372390700612357613L
aL10358481542516667956L
aL12833202967702657465L
aL4253986305019087419L
aL197904261394424917L
aL8992988255566513850L
aL13508521541818855123L
aL16926122719418754971L
aL12799873918619762993L
aL11162906486571125449L
aL12881364851081761370L
aL17314885840068404763L
aL4967868051833813038L
aL10987384818421349718L
aL2292178010887107935L
aL4546969138344053550L
aL3205419727815311569L
aL5217203040522483102L
aL14638863593960371527L
aL11272082285832877989L
aL10119083084244773365L
aL8316999137247923197L
aL4168140449976592826L
aL3978037298984812836L
aL16468146091451081718L
aL10950455486597653158L
aL5060979788490036767L
aL7244913933962870868L
aL4043385972131548711L
aL15029914465086202698L
aL11642081785433484262L
aL3127609819241699923L
aL16533169547964165947L
aL11057994894866672011L
aL9923688013331608405L
aL9397883525339280576L
aL15679858973457287240L
aL12920991123743751247L
aL7613766839045893254L
aL17070500429693258705L
aL15372008522787250890L
aL6382279741714874653L
aL14042657462936777934L
aL13628070219576501330L
aL15186325463059939168L
aL12345285426108609473L
aL9037000399959707432L
aL14920173543932068305L
aL9683216694098676922L
aL18051936362365644509L
aL8649480655771530713L
aL17560295312627019317L
aL1618122202253898952L
aL6220773599283197173L
aL6363796826088150492L
aL12483515301519390095L
aL957367965210534308L
aL16947137669209799703L
aL9814152076635774402L
aL18233973751653928656L
aL10050726840533759276L
aL7623579286705242640L
aL6614805277561573187L
aL15724429252109185570L
aL16594219380989765809L
aL9037072582062814518L
aL16098285214264881204L
aL3204257240123586866L
aL10867985802709425451L
aL16669148469142468701L
aL2948635269477086993L
aL4914921698803745195L
aL14383231898349298251L
aL11927959412794146264L
aL1819258362209208816L
aL3851785122943453327L
aL6002955170804762126L
aL8451873747397225717L
aL7292526240471649060L
aL11927429646493590346L
aL14617758705747279688L
aL1721407305725983417L
aL8443249400662426265L
aL14820680473574796390L
aL16069070398785291025L
aL10629605268303833940L
aL16192309969436006557L
aL3132949812641219437L
aL9977978647244144390L
aL680460494354421031L
aL17305118811703829791L
aL4657877328701127332L
aL13764049459697621006L
aL13414432124235549440L
aL959056156965648662L
aL14143742996465313265L
aL4876561449320025189L
aL11609499467575149809L
aL4380537261989252150L
aL5429899337500657615L
aL9095247234038236839L
aL17464519092127671710L
aL15024181408602729257L
aL8569911604840684377L
aL10652368206566858514L
aL13490929626238160833L
aL8088706663671317965L
aL3564954017001515603L
aL15128431632854372918L
aL4209751945921340157L
aL17884429263515177722L
aL5254921901630476751L
aL7429008846023735143L
aL10512277737137176176L
aL6624118016954259078L
aL5729990095222836111L
aL4676798015391652486L
aL16147005683992564309L
aL12572001264583879937L
aL4271536950773196217L
aL16745490640832455972L
aL9729983140571362139L
aL3257076113591434016L
aL10306206297157337077L
aL8377206929374901891L
aL5527441928493626843L
aL11659443416431914686L
aL8441297182303647157L
aL1715018804781252630L
aL5947495022638138932L
aL13468514533306601743L
aL13371279633296761044L
aL16522193474172653436L
aL12766097727763856942L
aL11956083037483373505L
aL10742464248327658112L
aL7020820079072053564L
aL2267102060205958076L
aL9804215866719240108L
aL7648219939454597388L
aL11678020700116659987L
aL9731512686183552347L
aL15529748977881387179L
aL14618180687670909850L
aL12480946509613484066L
aL11075337365906007032L
aL1885602518146087250L
aL9697110180429992629L
aL12482352235675701886L
aL10698640771003660165L
aL8431331601841653018L
aL4170177812210286398L
aL7212281373614604345L
aL17760132188089855257L
aL8279438303062759779L
aL3635189730836770876L
aL9398407519143310319L
aL5092876521644447562L
aL15499329667947760995L
aL16910665893985489305L
aL5616256954140122352L
aL15003708460257694728L
aL12453974404289333754L
aL2102229492404583444L
aL15269679019062335174L
aL15772102520450221873L
aL3915339872653371103L
aL13016131932922163631L
aL4370409309981792589L
aL418045054943090537L
aL8706290150765443130L
aL13064822015937112350L
aL15023119101434351438L
aL8370404428193863314L
aL4149940964721668010L
aL15823653704122037005L
aL16093468870238380488L
aL17038107480297361118L
aL15282645535223632247L
aL3138315519188979091L
aL16944893258551048515L
aL5045413383729567360L
aL13868783433816649819L
aL9590692468653210442L
aL12399247899203620249L
aL18014467616494761566L
aL4850391922546022913L
aL13070980321950723681L
aL5898334266724740844L
aL5727288516993531550L
aL2212204176925493284L
aL10930987223433891816L
aL11847598546541373237L
aL8837950345192228327L
aL624787880002011092L
aL5941488954022673206L
aL6590129888912506605L
aL1802191282853591705L
aL14499604567876506580L
aL15432209235231749255L
aL14591843226160600069L
aL10842291878441789326L
aL7778411834642234232L
aL11251814372354471108L
aL808134850664602183L
aL16226326368640435273L
aL1369330819164674851L
aL8174531788915230332L
aL5660559733770654262L
aL17026028421776827502L
aL12901014207349685170L
aL6396718747218746887L
aL6045721707250111407L
aL12059343807745373094L
aL6294457852782130178L
aL15196613526788382756L
aL3357679293176573106L
aL5160064186307211718L
aL13184015842542758831L
aL4566127622862169700L
aL15676778944006047433L
aL10073424336431126195L
aL13224420129872933107L
aL16857660059207269915L
aL1692883048139858964L
aL2523645599774357440L
aL11318665419276282788L
aL16825041940787370017L
aL8251353147590257854L
aL15261318884370074047L
aL2442377566099030118L
aL16974672150245798278L
aL5757934690295173959L
aL13638486310230394427L
aL13561707195781069211L
a.