(lp0
L167634507527742162L
aL9382972119628407112L
aL18051097175152288658L
aL13420911239917247641L
aL14248093376027657406L
aL12097481477098469978L
aL18171266803496877380L
aL5244499981122910406L
aL5271895023489075255L
aL8089380162070439060L
aL5503927676002911886L
aL12748468992111969756L
aL12349458248619166149L
aL7872567898985679470L
aL2404823025719510903L
aL222793120592376799L
aL6831341968280910635L
aL11555436267062344308L
aL10214521379879528193L
aL6662756459344121502L
aL15489037594618978817L
aL17231857576733333828L
aL2302285428429644480L
aL12922915787311160036L
aL12044188295872811666L
aL10052354737189424057L
aL10519633703015920453L
aL3468578947558375116L
aL10848116989970272835L
aL2670522356417196008L
aL2832541225002813692L
aL9077622665377362040L
aL12405326431219452338L
aL17959417452728803042L
aL5143783666475275579L
aL4610545116330314343L
aL11929286869389137923L
aL14560409322748225270L
aL9289170170421175300L
aL10645510194975563078L
aL3010850434058794494L
aL10105462410196680146L
aL9482555794149358013L
aL18160945273189289772L
aL8019685197357595038L
aL6661486899662281485L
aL11296815992542451758L
aL9000576139584360598L
aL4598321186856371855L
aL17102315589932099686L
aL2086380392383678488L
aL1411811533225730479L
aL16752694044225595861L
aL8430223196617417167L
aL12999782013443804527L
aL2162039933017456201L
aL681508066454639020L
aL13192867792140135527L
aL10099031448978569141L
aL10243960475473096614L
aL6411756116953267379L
aL17994987945880974829L
aL14966144436384479601L
aL4356410277780066371L
aL5434975780218537044L
aL373568950063441229L
aL15613722374685837791L
aL11239597101373768103L
aL17978696904541573768L
aL6797377573815367017L
aL1360419668853287541L
aL17941353688388336940L
aL870879794569906283L
aL16554681325171891364L
aL14293550665364945019L
aL13073638173780862684L
aL6717389872970898385L
aL15682182327759993673L
aL12651820003743061964L
aL11433525884949180381L
aL10245400202420213757L
aL7287291432380052234L
aL167683497430460251L
aL10486100367647711256L
aL13626556793281242710L
aL18055193500235120736L
aL5982133571024299413L
aL15475089080477854469L
aL17850332308988419950L
aL3190541617886784404L
aL13894257882180512585L
aL6198562658663849709L
aL15472590029312948878L
aL14533297041691418136L
aL15402899562357614265L
aL1788112645098074430L
aL12540931159840539613L
aL16763814282175271083L
aL411571744113488347L
aL5734049395754479599L
aL9493956300502178091L
aL13233886116070785631L
aL9151952620452726444L
aL18445554956492208714L
aL10859612398504869296L
aL16980850771994291754L
aL6120826155134106718L
aL18443757934514010806L
aL1552798797492359123L
aL4339380671674259728L
aL9837494513733925244L
aL6213129574716653549L
aL336058873792966625L
aL16371742676860381550L
aL2420663953054069105L
aL13294899637325770574L
aL16203122762755350674L
aL16932530314039364995L
aL11137465626184701531L
aL16497024167692092494L
aL17576353656770450048L
aL6986046427977774086L
aL11113120961844342401L
aL124717916057281640L
aL824898613037518857L
aL14105109348316827230L
aL16747229154541036199L
aL1900550270734591306L
aL12645542526041439521L
aL10759973978405834908L
aL11336342688264678733L
aL10536883266268738647L
aL11851205435744101943L
aL5507378284264282773L
aL9139308108719592909L
aL388256923249812166L
aL14184595852367030543L
aL14793772442915385962L
aL8296909575464711017L
aL8020816899076842056L
aL12249986534970831281L
aL13392557650710225939L
aL5024345968511113645L
aL14680658978597581758L
aL6166119220670557489L
aL10808458141645793346L
aL6650328976483237672L
aL17908207159524186570L
aL17010163910229225737L
aL6390085266520941142L
aL17514263640138064493L
aL17698517414332239832L
aL12967412805748850861L
aL8788320420777044236L
aL9286369122487846258L
aL17646941735917431191L
aL9849760814263375870L
aL13895085683605445512L
aL1209167067817054205L
aL11299268279883203786L
aL6631274090354682447L
aL8782309873605045424L
aL1140948983462569783L
aL7395730129867121727L
aL8611989411511886410L
aL15944536342366382313L
aL8510507534641337430L
aL2457459326677041081L
aL13110595598898040523L
aL3066588160076176589L
aL5977156453299137092L
aL5427927712282298241L
aL5787923369874896023L
aL4033455454605790172L
aL7066405063448350604L
aL18125202705184155724L
aL13243832745432532789L
aL660617469157445487L
aL13923896180829728244L
aL16395190021085233765L
aL10770067329491643640L
aL14281713634779269092L
aL13031248460897548635L
aL1375161740055161070L
aL15138535126681609627L
aL14936666656243314373L
aL12017754794932812268L
aL455021257901646810L
aL1489330774611976398L
aL17337827942850817525L
aL3346648661528072898L
aL10504528469896652846L
aL15586672703020459689L
aL4221227280533840020L
aL10085528321026358819L
aL11947056474545609440L
aL13763270954797571921L
aL16045976395312819250L
aL6323337993466479038L
aL11357478502091167203L
aL3378584750552312166L
aL15232773155856585565L
aL8087592787461771450L
aL11940229524483811242L
aL13734344416452712964L
aL2922192248252485575L
aL6086957213836892871L
aL18010331726520241707L
aL8661226531995662053L
aL5497444581165185078L
aL16445134737332154845L
aL1448759021150444008L
aL772689197189552027L
aL4549664359364665424L
aL10256970323013673771L
aL2459509265971440587L
aL18446198336554785599L
aL8329212413819960705L
aL720227372149276338L
aL2511644223189637858L
aL5237346916076283507L
aL234952400326026299L
aL9802638723386088672L
aL13434309149391491601L
aL15861746048439932558L
aL9454369238969769794L
aL6166858510930494562L
aL16517050939800415867L
aL12761676020946744483L
aL16796267971949438514L
aL12196642098818442222L
aL2213982456444164455L
aL14117837684785900291L
aL8454918675244638471L
aL13180167837961795836L
aL5327029899754539827L
aL13796561778840583202L
aL7595656339532259612L
aL7494028667518420804L
aL12885999743834506818L
aL8474794258953110L
aL12463829929819853136L
aL9911783161378930554L
aL648922048946335317L
aL6871391506969571137L
aL13909105036569634140L
aL2117109783037584497L
aL6847043853707952979L
aL16674741327385772259L
aL3496752300562217414L
aL966626937342838931L
aL6847190213073321224L
aL12822152131638294248L
aL7295496059259241858L
aL8562753857135936150L
aL5354399358618752823L
aL14386506510784314706L
aL8972596390522062094L
aL6587888859517524851L
aL10281790031868809484L
aL8009670987803422031L
aL10704096194216443826L
aL14000257421269245567L
aL9090670516829815866L
aL11723037139310450349L
aL2471307933799598028L
aL5396971553219855947L
aL11400218116380967670L
aL5570453783124658929L
aL12718900250132779241L
aL8619104986887122947L
aL7199984528934271372L
aL14589681485787882198L
aL5155183502912540973L
aL12557196638157328120L
aL17160945667078861177L
aL9742013361329521371L
aL4251039676078918094L
aL9566428495068169806L
aL9440616976559408283L
aL7097689899019330347L
aL17107559231830700490L
aL9031966045043345743L
aL5838963408537377997L
aL15997469672839907404L
aL523615515585025379L
aL17640316176825665745L
aL16310051146868623051L
aL1807281862623759455L
aL1855213686094913117L
aL11290519461272805032L
aL2273334608698054372L
aL2788996792164867448L
aL2726946212720871316L
aL12669449730719152099L
aL6276298224896661812L
aL5654988921636015495L
aL99982866486124083L
aL7692995754989584341L
aL16896815017566148981L
aL1233346650258904127L
aL7943267668241839713L
aL17936822966672291572L
aL1049154131355785846L
aL12461590153216063639L
aL514052751818949541L
aL14404403407624469242L
aL7014315805123027666L
aL11617102785415939566L
aL10734396140841333114L
aL846784884080414818L
aL13484942125510005393L
aL9660671103492468873L
aL18248199251971121544L
aL6219708860218419708L
aL8785860175084488324L
aL2423145151966789356L
aL15137507411083099031L
aL14298567728007262860L
aL1005673809931713160L
aL8284100875964088360L
aL10800559464218684148L
aL3583493948813557955L
aL14233396791517195133L
aL7268728037077274326L
aL2418307034633320077L
aL16918647659624101350L
aL17973335665713378823L
aL5492078078023968960L
aL1787131514318054782L
aL11417251604029862707L
aL4441918933222894114L
aL17800475394287485460L
aL8258047688468762670L
aL10722897463447213309L
aL5626484944734837145L
aL11591990966380955009L
aL5411648700251231234L
aL10584644348883132622L
aL4669129043069009193L
aL3611799322430485087L
aL3477828114944563311L
aL2065461467421915970L
aL7224790936084481749L
aL17752045574069159551L
aL14501892432729911583L
aL12011666112321483695L
aL668097167742244533L
aL16048440306563309023L
aL6306987771699497522L
aL15263147835117302509L
aL4393190922713694443L
aL535648658895241835L
aL4614337914283602313L
aL8605392600150106169L
aL954693014713509518L
aL11320930202946021885L
aL6058815770796310152L
aL9996360316603514695L
aL14312209721914438243L
aL16348596893577614576L
aL1731813407991940770L
aL7768894017163328472L
aL1993732507417488561L
aL13010329054561172840L
aL11946097936136877077L
aL8560153119597452545L
aL6752832149073583338L
aL2467491679497361465L
aL11605778429692451846L
aL1477083640112583058L
aL10125828812774674979L
aL1890786985407951728L
aL6223691899333581779L
aL10930103382640424083L
aL17405546314246302679L
aL10240214679238948078L
aL14059461559024550587L
aL13737008611001788940L
aL7279556792041450318L
aL15201384869920480961L
aL7478860197284325527L
aL5898173019382130700L
aL10231056918488554214L
aL6818977935128775446L
aL8179822411136433088L
aL12005523965193439011L
aL16135021519934227797L
aL13302329267426704655L
aL56363990411412979L
aL3216603616253535463L
aL13770119759282061478L
aL2604999799871203302L
aL16879808312942230516L
aL4962361125622609895L
aL7401593577569372355L
aL13400078091070357142L
aL12811619494020356247L
aL9888488774107188078L
aL13557480306787202642L
aL5748789633662434110L
aL10946697283038974746L
aL9759319400208200093L
aL2821836619608549079L
aL4452233704995785887L
aL18153995129957031710L
aL6152959308734765159L
aL12225821164486618619L
aL4692228466251580864L
aL3526618013246250189L
aL9705510636297195435L
aL3121138369041501696L
aL11195438072406035049L
aL11565273061513940289L
aL1667078592189091285L
aL3849836120157340463L
aL3065967696816177868L
aL5287547533983523324L
aL10717020087576011302L
aL7021711464196782672L
aL9954009323164891634L
aL824456942547403759L
aL829083993010384312L
aL17603190626879874014L
aL10841596061949508378L
aL5261308180748898611L
aL4347155580870091393L
aL3328005116879132160L
aL4110317213237992353L
aL14947448464635783742L
aL1430695305121524370L
aL18407468365481439997L
aL15386861217795185073L
aL11599601236665194769L
aL11137795151466342392L
aL4502865366317229022L
aL8354442689465550017L
aL3556440404272145353L
aL16838522511456803952L
aL3200830972130641307L
aL4384671723954100797L
aL13313635972230218889L
aL4677339395660861655L
aL627664785300569957L
aL1948295691509408187L
aL12239485709064936988L
aL17905611054961202762L
aL12107525234932191910L
aL7259249150209069161L
aL203398467804872213L
aL15533796255773019795L
aL6031933757208132889L
aL8348893538114847327L
aL4103364850845708765L
aL4669044497720424112L
aL6955094758172112505L
aL2085045438669938872L
aL18391829233513657985L
aL5220388873712980149L
aL4018723450257378527L
aL5461045102037038687L
aL15197109676980579533L
aL7305324844841896903L
aL4716099294581383278L
aL7964024371260177240L
aL7814438899531410013L
aL15829964762527227659L
aL9037514322355213225L
aL4288162095612155631L
aL18076874218951356233L
aL11894782655955385552L
aL13505903349498507254L
aL6870405485597052802L
aL8188913450040061346L
aL9225253626112065048L
aL13516863495375392759L
aL14188332676628900942L
aL8618423180584318817L
aL11460081003533882128L
aL9031147247179618940L
aL1263062784055714057L
aL4077585496065255210L
aL13207616032196916874L
aL10787358844504076323L
aL14130459123992806405L
aL10745625886527418372L
aL2063355600509279970L
aL682682940532500616L
aL1339131991630154928L
aL16674701967366658898L
aL8179339084659931596L
aL12651822367193287577L
aL11710535102891697203L
aL1488003452033176741L
aL15423071067453329396L
aL9079335413995356505L
aL6036695393302814575L
aL14321630113584023812L
aL7095082028810300388L
aL6411603896001032946L
aL9996017246656360726L
aL7275785305227707613L
aL10076795917708332796L
aL5691006232349183937L
aL11867009501236438088L
aL10406582050608034463L
aL12624747376028729566L
aL12835404835376820346L
aL6420093483234558468L
aL3247633128136600098L
aL4254339593553793421L
aL7311791592358025420L
aL375474173486141404L
aL1430705346984961671L
aL16559104055387139992L
aL10060513056663318103L
aL17787574654623347766L
aL14107364662471879299L
aL1897922930224416459L
aL9736648057821324249L
aL1634439630606677232L
aL3701969175855238478L
aL16920862277144157388L
aL10273552589837654132L
aL7014864973933596072L
aL16323035443258512755L
aL8335365595614040110L
aL8607322548235071255L
aL16557179370487477602L
aL15352292492007915067L
aL8916478888758859161L
aL10554867633182575897L
aL6427829523531016350L
aL15007111616748619434L
aL6960368211760136226L
aL4447678960574857266L
aL14320856434472056320L
aL552221717476170915L
aL990702183161433978L
aL12128806167313156936L
aL5909529043946299703L
aL17374799830988852242L
aL2046103842499298405L
aL9638940289327503527L
aL405776128731292354L
aL15281710415289638103L
aL15924472668753042943L
aL2673128650583190942L
aL10036277605200089352L
aL744903726212248135L
aL5433623835765628884L
aL9866430358717704193L
aL5850368984381731017L
aL15251386585665758487L
aL10401199667037318270L
aL16573363560469311697L
aL13916505401786159578L
aL10180182595068191695L
aL9226527977340227082L
aL15330322169549335451L
aL2217358225076845486L
aL8509225387735336204L
aL3094442704546917715L
aL17310478669980787605L
aL10972454795095689064L
aL4406380786241520385L
aL7308146043540688988L
aL13208405639894914057L
aL17667911620927356241L
aL5039862281613215357L
aL17062129173858269952L
aL12606176115308399804L
aL16845162128381194850L
aL11761587158767084061L
aL4726859235523540612L
aL15609784260039335580L
aL810941572896746744L
aL10847466225612750517L
aL17253480960472571117L
aL3088914773493407982L
aL16150199625700443964L
aL17776050670587946917L
aL392588963503227293L
aL12019926946289986196L
aL13977884073051295628L
aL4814974059237312718L
aL8862852864677072L
aL3881608656088232874L
aL11520613216744484125L
aL10909242616275336648L
aL14137104474038378223L
aL3858407778667408414L
aL10369270912612700363L
aL977869715092994157L
aL9906685680669509971L
aL3770050824299437512L
aL7131503598065286013L
aL10919194173461530390L
aL13431019145279822419L
aL1081635974431609429L
aL14832802108966334858L
aL9440279181127677952L
aL10403535993117949496L
aL1320889659754159524L
aL14422622902546325970L
aL3979085395003409580L
aL5255951599153068733L
aL9309525200962435275L
aL2428425002212970846L
aL17857009669986097143L
aL7040226927285144646L
aL8616812248346686900L
aL8547015057853736324L
aL4213816923987949293L
aL3738082244424364560L
aL4043749513448408521L
aL12672454217743982527L
aL5816709091324252167L
aL16695024330187231551L
aL3780190403405003509L
aL5997088531626630224L
aL7510584142266845153L
aL1514575298759252000L
aL11748947814255052038L
aL6567653171476567011L
aL14963614477915069601L
aL174478679211728823L
aL7509810779240353220L
aL13925783801030338726L
aL8223280646513208944L
aL3079241490294654207L
aL4156611137472480270L
aL5735589193172077539L
aL4136797625613671894L
aL3896471347722736965L
aL11172823281222923535L
aL1437629813276701840L
aL12364492260354075890L
aL15187720358561122320L
aL9159115737888044720L
aL730761827651663390L
aL6794531647401519896L
aL16666947067831742153L
aL11499129943039901982L
aL11019275561939041888L
aL716862203581843524L
aL2535522421563641855L
aL2975135700566766130L
aL15995058269857281709L
aL12553657395021833982L
aL17536579363342378812L
aL3627887282053525684L
aL1522288380053569872L
aL18062990349037696479L
aL13256560728895720532L
aL7087292030281983184L
aL4926313887410270360L
aL7531008717527344371L
aL3470194345232289983L
aL12034876810390807356L
aL10607579261629008506L
aL700872881372866544L
aL16744725837275961743L
aL7362174565205809294L
aL15452476415759180005L
aL17990730203269853649L
aL2959368351778270578L
aL10919336134241341331L
aL7438914368670643411L
aL5130940727568665238L
aL18338084367292603231L
aL3042116895334549056L
aL10035374350495968395L
aL16646426390762649128L
aL5610822408541359539L
aL7755969049250363109L
aL557130078766377623L
aL4025929157100490873L
aL17098732087850592482L
aL1702227873930263911L
aL17390064704648354355L
aL874297008243025737L
aL2474257032773278197L
aL13823230582901741516L
aL7517503108234090185L
aL7873008410539765720L
aL3471828408084720927L
aL10286042486452428415L
aL6388096596000475562L
aL3873841941535324760L
aL12695664433056368530L
aL8486776294942069153L
aL13782994287712027243L
aL14626692324607482917L
aL17925021456953473771L
aL15999901930874690910L
aL1038797652120330290L
aL6990533844211618994L
aL14020355184498578989L
aL400979585498709807L
aL12371913109342399183L
aL2195900145043078884L
aL3605024175414661885L
aL7878718949928816983L
aL12836130014390991024L
aL917638542505149569L
aL4175683454679124778L
aL12724278729142949808L
aL15605348653332660769L
aL3963438374904802023L
aL5381422350902725935L
aL15116141677797869074L
aL4438976519264209923L
aL11673987748430473180L
aL9982349740500490340L
aL15787711328094135210L
aL14127855963291962405L
aL18140932785976910080L
aL2728255519487744540L
aL9771060495697793534L
aL7037728002810750145L
aL8980430993352091409L
aL16943015876086442703L
aL3847312948863067439L
aL12762145265445137817L
aL5277577033928447476L
aL16135430166674889894L
aL18306375589846313955L
aL10899701446822333426L
aL15185644908585580964L
aL8850814243376782336L
aL4397937886339302961L
aL3978134386515809345L
aL8307267001629644033L
aL12778753037847498795L
aL9992119013154060712L
aL17275471942375945352L
aL594791423312475592L
aL1871962744631103937L
aL15980769838352595243L
aL11761393945915931361L
aL11575004763828998967L
aL10299898428597602582L
aL14218265877013857121L
aL18172459193547919873L
aL15486653217252809063L
aL750295437622170633L
aL6770345449518868714L
aL14342496487385484085L
aL4767981040599598612L
aL4410146897120267645L
aL8503598061235423219L
aL17739600136783362787L
aL14619194877232856102L
aL572233533925399393L
aL15291498480794039439L
aL12592622799614153831L
aL14892050367583288311L
aL18406845321312833772L
aL17761782920930045821L
aL2536600236161201366L
aL9480499406921754073L
aL11432736338134971418L
aL17549269744085348301L
aL6160246270722736677L
aL9949236974794132834L
aL13568903457821667179L
aL5452676405829716444L
aL8922231745845149785L
aL1689144489211721890L
aL8648392541966892381L
aL4734175812589470316L
aL9923592752029364778L
aL17977275546318427501L
aL8706762673251705501L
aL5799034646127585604L
aL17419608069247325942L
aL4245051292426871174L
aL8055021419194827126L
aL8682425404144303110L
aL1597321171710205563L
aL15196735147087251461L
aL5288667189986584616L
aL8059035088352354688L
aL10176872905129161160L
aL13808363022670724960L
aL4116351012687597438L
aL10097966097320293293L
aL850974050078011880L
aL11389404911987861533L
aL3014292195676510550L
aL1384049363684358458L
aL1338119011559322717L
aL11449009321845625643L
aL4475251092169851822L
aL7806451212665446829L
aL15886239497141417617L
aL183915781024437680L
aL368017786718234185L
aL4609678796993411644L
aL18364057773475201669L
aL17230065921479633558L
aL14550000195678036412L
aL11233172059028982658L
aL14916561193364091260L
aL3074155684117424322L
aL7232780802765860926L
aL12462002827396193513L
aL7711975597426867418L
aL2012195838668079851L
aL4238069418237316212L
aL9253352747203160322L
aL2137204248203504367L
aL1282697917608214116L
aL29513923397738090L
aL1293201357146314777L
aL6295431797528072814L
aL5447236526918044317L
aL15582464894698908223L
aL9816855129768003909L
aL11636876824100647774L
aL5832316554362794714L
aL2470672520650436924L
aL17774294273753046465L
aL3276778625969769467L
aL5509480378722875176L
aL4702867952927304261L
aL11727009882759896049L
aL1227588537458547797L
aL16090105122855221348L
aL14718145064537766139L
aL1973764698215919860L
aL10458194208043376856L
aL5388331619952346138L
aL6200828215851160748L
aL8342680726591517885L
aL5576998902229967549L
aL15083376298603683473L
aL13186178764541057551L
aL11407348186024192773L
aL13828339647154399600L
aL15612305566168523176L
aL6260355383059509878L
aL16297823551683779408L
aL14950673293612445214L
aL3933144865481488399L
aL7380630366413313816L
aL5439313340264416978L
aL3119282310104398178L
aL8657478392128479720L
aL4981792215802555218L
aL1584131550067672335L
aL1287494352276337273L
aL18225662002854564976L
aL1600209170649538456L
aL7539277826066615298L
aL12451955202640398229L
aL17143439066917924777L
aL15770887786017974212L
aL15585651789463029948L
aL2019348045903779532L
aL7993570100223330016L
aL11977780660977140722L
aL9315405360380301743L
aL13427540660434468606L
aL6297665139785578400L
aL15764941940013543311L
aL5011477818106280479L
aL12390875747078726452L
aL4792329272611658375L
aL2359523089127472946L
aL12717016000666521548L
aL10092562413853294581L
aL1723102324745152641L
aL16737511706614173738L
aL17060044504200248559L
aL8449340945014440484L
aL15183126387325330655L
aL12104478423026243699L
aL3557938347680115602L
aL10027851187500876784L
aL16286357567496765210L
aL16021480622618507869L
aL12941528969234328282L
aL4392623339420864431L
aL7175882697559444189L
aL390115693853172974L
aL874269387555344849L
aL863191868331669706L
aL11408083750984906432L
aL16891365985120086028L
aL5012427232145005960L
aL11137694622701444731L
aL12787168977860621948L
aL17006717307755776034L
aL10587930478858739913L
aL17821289358360809110L
aL5639866207832547178L
aL9702493171805576186L
aL2643541836489429602L
aL4974801620454728787L
aL16176379056859064039L
aL11484172743953538345L
aL1728018803650374058L
aL8816232245169810514L
aL9296908334984450015L
aL17863134984332739263L
aL15562027975029010027L
aL14586725585858455766L
aL10528095780144697239L
aL3959314170709838989L
aL18384096800601970446L
aL3644073210879463416L
aL7626157278949398259L
aL15627824895590148569L
aL6698463588704933241L
aL2567050987291638350L
aL7502471217677284339L
aL11022796887825230837L
aL912389891515187965L
aL3447810567117843273L
aL2516445757574687261L
aL15314600932615834406L
aL2625420035079275016L
aL10133417985007567743L
aL7546625803281167992L
aL7964378707563874712L
aL11284256477737366944L
aL11206139416999639906L
aL12703694207568673433L
aL5230307535228446414L
aL12770242476218137181L
aL5156789318506090023L
aL5409136684540210152L
aL9311826612016498988L
aL18367846461792045746L
aL5956162955951581844L
aL18340742500696332543L
aL5272448387486313565L
aL7894456188260379893L
aL5570097883904270713L
aL12948591172238189751L
aL11879721315427950741L
aL12576637240061768816L
aL257420273810547331L
aL14243890904960883648L
aL3064133684487042820L
aL12797022892207584333L
aL11509754850739982129L
aL11563647439640896594L
aL13240036847136364517L
aL6419066615843691571L
aL17480649354528444237L
aL14119299832333456258L
aL14250275723389094604L
aL12185099484479879196L
aL17195709810866347036L
aL12362289076652709149L
aL15716005167159228295L
aL2432600474193483435L
aL8546101195465818286L
aL3165432390254714707L
aL10021542196292216563L
aL17916455767277759017L
aL12769111780201100540L
aL5830910667332460235L
aL15903731242722029554L
aL14591677619168761561L
aL7380230232107988542L
aL13638537755413962905L
aL12346914677380176215L
aL9360832394339041574L
aL12266532828902325026L
aL16033126734900136207L
aL3717096719549748264L
aL18422777290469192101L
aL2315176257172305433L
aL1657374648459456004L
aL14996957182556145215L
aL8964842261256357057L
aL14800203770980087368L
aL13564915215490910967L
aL5527415637840329813L
aL15456850861743332830L
aL15982989110528926207L
aL11538846252096151329L
aL5380815445723364298L
aL11100867261417018047L
aL15227056247101412691L
aL14384564729070391814L
aL16580300227280264486L
aL7830664833380850038L
aL17462964023659488700L
aL10357990797091687694L
aL12027224713328711687L
aL3893653285268882899L
aL14259138999369279620L
aL6121561887972606708L
aL3565932918376470836L
aL16946171390912015262L
aL7073920004720965863L
aL9990300067621115023L
aL12970372803755218876L
aL11690858652215080935L
aL8932837818643989793L
aL14308453889268436666L
aL511624311361238035L
aL2786792235949014236L
aL308915571129693868L
aL14547645204934149889L
aL11051541395694444504L
aL16954730429107529948L
aL12896147543540482546L
aL11119336489146784369L
aL14333349756512129657L
aL16392247904042664589L
aL11094394017974028881L
aL16829569143883463114L
aL10718773307286934877L
aL7482482707455965564L
aL9633747434758276033L
aL15306708679521190599L
aL7052353433310313579L
aL14110935356768935484L
aL2986187860345502849L
aL9796926998698306900L
aL15440096408453896543L
aL8240006046264172972L
aL11945145160708010778L
aL3145288207764510980L
aL12531131236842024102L
aL9858922420480880464L
aL7317397347151619885L
aL16913547739746148306L
aL9004291576210825499L
aL8730505820603533260L
aL15704007465747105195L
aL17881641361839968757L
aL10356542619343508085L
aL1663999466433643615L
aL1562833570273005642L
aL17940400391729311973L
aL12333362621917461367L
aL118895412734925126L
aL10049502362486172229L
aL1199761915838795015L
aL3873420481657949265L
aL15663507964296969952L
aL14002946476276476675L
aL4465524243146547852L
aL7876359553433020958L
aL3313957027637062267L
aL16240068138210610435L
aL9520327001639798497L
aL6575544443481696008L
aL15562552873259957568L
aL320673016097840033L
aL16275517475354752338L
aL6873520963337507538L
aL14588284298564327442L
aL15469143788279113488L
aL12862444021438308482L
aL3025201358518715275L
aL10538441291477743354L
aL5314383426232031222L
aL11876591293023661787L
aL10403144203632110967L
aL10180917961993403956L
aL8772962412357259692L
aL9482826952308156320L
aL17193851781232703850L
aL9482964781217701643L
aL6914891498224366161L
aL14563034425117519300L
aL14290652676766518323L
aL17356726766776789866L
aL4805926776739442562L
aL14919337408659546168L
aL8305317026131937602L
aL9471196268660391186L
aL16638581341171698093L
aL13145062952086709255L
aL13918300855466369356L
aL11898115167001857118L
aL11519503945715876913L
aL10819803398791483976L
aL8406996156806273767L
aL1128899037464636946L
aL5916953020542624878L
aL18061653482311753575L
aL7366865553555766744L
aL2352474907237815034L
aL13944646042015676296L
aL8866336017224645783L
aL14741231502190665439L
aL8880435012568917396L
aL14478621516693263686L
aL2594220410495064778L
aL14307098301946646373L
aL7745178262115203999L
aL3551361864161673677L
aL1616046861796198933L
aL13785728980077653778L
aL14750490607678820281L
aL5306956594496522252L
aL7626742236483397084L
aL16524291019248829790L
aL13428801483094510427L
aL13290290043995430598L
aL9436157135258887451L
aL11292863598435081383L
aL12218061308586903411L
aL2411776064205461721L
aL14266241576870333797L
aL17963288221864168834L
aL9201756622415338099L
aL16998941795202981925L
aL17758891575528803732L
aL7237525847103916922L
aL15109360227361380728L
aL16410308627799449106L
aL5724375497881455129L
aL5316122610164273345L
aL929355941044672383L
aL17411679930951765024L
aL17050765923661885963L
aL2724749168960908735L
aL5211818507928489096L
aL4354798162130807267L
aL11060415066779428827L
aL9393615958519090511L
aL2827722656075615201L
aL7111574787826665585L
aL10446230107563565431L
aL17123744858443019668L
aL12506009810286070890L
aL7204869127076369976L
aL806264927236897116L
aL7952511059895598600L
aL3543279823217100532L
aL12322484383848908731L
aL8077012677254542799L
aL16662847994295330567L
aL11486806771114819767L
aL1437500945176786563L
aL9850240569347676094L
aL9952469936800037674L
aL8840394508913892182L
aL1826396614343528112L
aL5008950589008405904L
aL18421320275145702475L
aL10845369472968447048L
aL13707174315253025747L
aL15523039283603727484L
aL17746621819596409926L
aL13183834046667597839L
aL10070592498512674165L
aL18004430902025369960L
aL5520334163605094745L
aL14969931464332605217L
aL7015133525482306237L
aL15723407967859927909L
aL12233526265529122599L
aL5075263165286954444L
aL3994739297224536159L
aL17108698149911195885L
aL10770933373382684783L
aL2439385490350966829L
aL4963418920609517109L
aL2293711111728878284L
aL26631455812283807L
aL10591854112421319342L
aL2807193569991667485L
aL11305594446460084834L
aL10933085316251289619L
aL6825144509519226661L
aL6502647327202595833L
aL15774137647671744262L
aL10909970522445523680L
aL13549394730034118409L
aL9263472799169050096L
aL7278975785346023386L
aL11743826218663639802L
aL2834027419458264380L
aL13015384898918022319L
aL7299445410555416144L
aL8726395559002648948L
aL1825642924641595935L
aL856893482007476073L
aL18209484355653842593L
aL16702556155927365821L
aL13493776340125154471L
aL11778354246919047887L
aL17603491763251947815L
aL5248732738193477715L
aL14705747201429738549L
aL286870640143563602L
aL17625149316470609495L
aL14101662579005733673L
aL9233344195668925533L
aL17445031441632862407L
aL3318700926157842667L
aL11322079539650096249L
aL754945753446793612L
aL912581354954908363L
aL4988994157653730076L
aL13528704646074154197L
aL5140105119377188220L
aL11680383818692969280L
aL6168926082468707866L
aL17124611219160809661L
aL3083069520668892552L
aL12663610489336076398L
aL10717874758757209731L
aL15760821804164559248L
aL676010169986556533L
aL659853914790543472L
aL4205370007717699717L
aL14905654104317647745L
aL16518006988363516212L
aL2139985191381644778L
aL11394337760338467823L
aL7671852959361998636L
aL14932241782187824127L
aL4982157629818231061L
aL7552688926450662463L
aL8940312514264648309L
aL10363962941434572332L
aL5377885946053217164L
aL6044530371587780897L
aL13516436919210223889L
aL15432966166626875731L
aL12540250977800854291L
aL11696048720102339940L
aL11793566119882702083L
aL10272688285153145013L
aL4649605664988290135L
aL17608946899404711275L
aL13390040818936604714L
aL1486190490427730265L
aL7926806944502521081L
aL8427872990657638806L
aL4615092168977205288L
aL7706375211070451763L
aL5305158956654835287L
aL1358678922035962446L
aL7986668976027657537L
aL9552979585715206783L
aL2083733827519905081L
aL18079522600375020879L
aL2439944029248680397L
aL2220207440810593276L
aL6545652634301097904L
aL11209376384971668452L
aL15768937505297220287L
aL9995336791870510088L
aL5335808694747202677L
aL5564811496517182401L
aL16368898427511140841L
aL11696679727359070849L
aL13454671779732220457L
aL8828950664361631823L
aL4165060319396125142L
aL15180416748460708398L
aL7411988331873715250L
aL2130915601109061187L
aL17785016579490568206L
aL3106205094105449992L
aL3046133622504907624L
aL2489642817728560183L
aL9149696194016921946L
aL11154216269193609387L
aL5164888891049006626L
aL561889882585001689L
aL10840075724783669489L
aL8431815471232576217L
aL15206456098938533974L
aL14197083469734180749L
aL15333324924433830230L
aL14671086312193236380L
aL13845249907460856193L
aL14886280273354278326L
aL10269862240266668874L
aL12679013436377261293L
aL3292083854390642183L
aL6344331114176050560L
aL6567331098487188198L
aL5061402694510555647L
aL13601965598787965972L
aL10748362692960619995L
aL3223317834783248505L
aL1336141090729939841L
aL13604488778971048226L
aL51402828297355513L
aL6356469676073851522L
aL4388415109143866678L
aL7805911308195564400L
aL2438376654111068838L
aL18284439843496114686L
aL17812141859210770523L
aL3861028582050248159L
aL10390506256650758395L
aL7585721686368633714L
aL6698510551120834591L
aL5270105832903132403L
aL13435213321439361726L
aL4980900782450573852L
aL12412021511920410504L
aL17972093617074739849L
aL12982461992079337417L
aL8479201221266133110L
aL4426246678585988612L
aL4157968972859538210L
aL5210773177096918790L
aL5473506601059004007L
aL1120742631007973283L
aL16698582324823606114L
aL13286071499214610878L
aL3264809491205932008L
aL17604413064152763879L
aL9975581456247724911L
aL10198280915192306041L
aL17357707390908966479L
aL17847022725248966818L
aL8220127360617913574L
aL2194164524838681874L
aL6625723400271507962L
aL7292961966089765981L
aL6740197569948188645L
aL1098419247521986945L
aL2119294517423361825L
aL7937996463224402442L
aL10668280381914585307L
aL8696375518227099250L
aL5066334433484803832L
aL10689349044418857829L
aL10962203891262341981L
aL17100967897838865085L
aL5520777263881586715L
aL13665484560374227012L
aL9902271276378097526L
aL5949433801241362444L
aL7102054550693629979L
aL2599452235152364493L
aL12020554813521227524L
aL799540357987576098L
aL12215748367146106249L
aL7147528358944347399L
aL13966940990706593397L
aL2259683707046421485L
aL5317681530663633435L
aL16146695822871167979L
aL3604856045377689893L
aL7200176632960546180L
aL5880333142033676213L
aL17292472952488493357L
aL15754967121412945762L
aL8207196045404239626L
aL6921249839880883612L
aL10899870581345896939L
aL7901467793922565470L
aL5951942533712265963L
aL7142677583102720792L
aL17894454741468658589L
aL9699375578646950972L
aL14816884624096756566L
aL3483434700132951421L
aL13061416926120608456L
aL8977591219076275240L
aL10531273638749251329L
aL9741435306290307162L
aL13961568574037840197L
aL11937472951742840142L
aL3969486537344156603L
aL16087739655659164176L
aL17864365240128782214L
aL8255901283741712399L
aL10996455662334873158L
aL13246326528397508084L
aL3441930682035859508L
aL14414700329371435584L
aL15157182773206192839L
aL14051714906606875191L
aL10019455088741830334L
aL10408943923139252236L
aL3664945041872976928L
aL11835349324508929835L
aL10138099223788971651L
aL7718784264268143185L
aL5731023233264375500L
aL16197320900211645616L
aL16588846914228807925L
aL17113783269143339546L
aL3976088130872001189L
aL6470416267531302121L
aL6219671639161790528L
aL9993091524537499720L
aL13737523812487918845L
aL3152193753935815395L
aL13964147340658417718L
aL3485527701717994032L
aL10897114855219224891L
aL502394699042634042L
aL6160962861286435287L
aL1363131611178178804L
aL9973071955130782358L
aL16794137858799960815L
aL6257900722674218333L
aL5674659162484709340L
aL13623150313634192046L
aL17195327424211018749L
aL6062225202213899328L
aL5501946238395315826L
aL13809307412876293008L
aL17924259622977352121L
aL5329843820476365993L
aL219195227056057204L
aL10055696628551929107L
aL200960695985017139L
aL3573914842473963321L
aL10836433759531958762L
aL13545119175425361241L
aL4133546394347003060L
aL5122243605239452111L
aL16141583555790392761L
aL16652750626548203243L
aL2097606237692403848L
aL11217753866201168915L
aL14839899062294457744L
aL10104594870973395651L
aL12277907330971947232L
aL14768428758057373741L
aL16818474587420755043L
aL835297389140656992L
aL272954934665356322L
aL9077869530833156423L
aL10839068702998876988L
aL6045264702507549505L
aL12282118778861174590L
aL1052114014085959349L
aL14831695513416724243L
aL13241776549578134697L
aL10175076533912564706L
aL8820430817080226295L
aL496946494780815141L
aL5207456272057382061L
aL17674741139975132640L
aL10702020862855886930L
aL13879835941952335715L
aL15069463512375145795L
aL13584440674097515892L
aL11080008427844251102L
aL1791056104958507951L
aL12355077610281509660L
aL3907620019897492219L
aL3437172366105653538L
aL5590318014004606095L
aL7553938831951114795L
aL17762932324096443787L
aL355084900648900403L
aL8211041260877319717L
aL2149585582016244242L
aL18235500993286477401L
aL15479834748801677547L
aL12149951240739436531L
aL1316894206198077058L
aL15049142613522250018L
aL6773402712241218225L
aL8347377794005703834L
aL15003627111893810268L
aL1553717406943490781L
aL13684650948095728671L
aL4601483614289226047L
aL7365709159294412332L
aL12348778370100283221L
aL6377650461686743469L
aL167614810445127106L
aL3452829578196631447L
aL281792931690984586L
aL9485125325464551205L
aL16539595798786406224L
aL3246803687577536338L
aL8530793860834733832L
aL10772184685244324011L
aL132981085161242006L
aL3144144504558313654L
aL14795837867466037918L
aL2260638066470627851L
aL1515036616421791289L
aL11465984872765392959L
aL4511340179933053670L
aL4309415143521740761L
aL3415640479483819491L
aL3727982621191842678L
aL16134623521165133564L
aL14416729801936037062L
aL2934363121573770623L
aL2619332444963573932L
aL16151164006725924908L
aL2661425263739257571L
aL16576569558030163406L
aL10714650637435665935L
aL8786605131774487158L
aL9470598885522528133L
aL8103181585928183421L
aL12181557769931502100L
aL15102911840124970526L
aL8995451711402028821L
aL3320927338342241854L
aL1345645154161363058L
aL14529532327099962256L
aL18263638094714159048L
aL14120870801484324722L
aL17720790063275633006L
aL16418397031645648266L
aL12243445313777294902L
aL16811367523267337492L
aL16632121266877308420L
aL4320843733333479839L
aL3589322639459935278L
aL3625143170553714146L
aL2723621343743927854L
aL5218700389430669302L
aL4287525082386963855L
aL4654225744944634934L
aL9200685720839509696L
aL8410540565689162132L
aL2700440589046048510L
aL10610599666574473100L
aL3108880844621365844L
aL5397527277820199767L
aL16565308986872227060L
aL18160228515252475109L
aL3574092425765647424L
aL12421529697218840164L
aL5989016978039698928L
aL166602749001101160L
aL8469232034477237899L
aL11856515759694287190L
aL15519824645926673611L
aL12483907569575678237L
aL11221478725576589324L
aL6862622498527022844L
aL15824589273692097874L
aL8498145460862207246L
aL2058725974828430754L
aL16584889677565158850L
aL11538864257729886413L
aL2093638748550681147L
aL18095228847376558164L
aL8805795802894032775L
aL2461378765676396159L
aL3227833634027280923L
aL11748855196018427361L
aL1860532377904976528L
aL17597502867577334458L
aL2792838610348477528L
aL14873147565799506437L
aL5490967673510491434L
aL17817336647197018536L
aL13546177886105426616L
aL17927763529421233795L
aL5128763003627778213L
aL4792597487568118334L
aL14493911753346755463L
aL4410080473874051253L
aL5882914224341811396L
aL10899895664515628005L
aL12395505481438237367L
aL10639040247950798498L
aL4387207843764506749L
aL9182626610691704379L
aL14324696160029066286L
aL13217299779901075762L
aL14798557706407770720L
aL6716567295140196698L
aL3136178601656979123L
aL2888900563135326259L
aL10219422682233673512L
aL13567916691669269452L
aL10185632471460094001L
aL18126082019063772425L
aL4940738846251384880L
aL3217231672337986939L
aL5498747302431062015L
aL87019912381325262L
aL17101369923945498799L
aL1121923987719312825L
aL1174568348223393533L
aL16155001725564818022L
aL12168703456734147103L
aL10271674534152812748L
aL3422520484044553735L
aL8398859403150843910L
aL15262560705115743637L
aL3476226390545743860L
aL15944008647605332332L
aL3858082190241364534L
aL16447558534762666251L
aL8377467620903089432L
aL7723546603437082635L
aL14911148778398065702L
aL15975781212070684450L
aL9469865129749876141L
aL11480246989658115160L
aL7642278007482691688L
aL3099742988765231707L
aL16475422623608474762L
aL11533600744851213139L
aL14691867474687033623L
aL16698733932229144535L
aL13584302879389295213L
aL87742330992836475L
aL13606200179675263270L
aL7846274209655509557L
a.